
SREC-BootLoader.elf:     file format elf32-microblazeel


Disassembly of section .vectors.reset:

00000000 <_start>:
   0:	b0000000 	imm	0
   4:	b8080050 	brai	80	// 50 <_start1>

Disassembly of section .vectors.sw_exception:

00000008 <_vector_sw_exception>:
   8:	b0000000 	imm	0
   c:	b8080748 	brai	1864	// 748 <_exception_handler>

Disassembly of section .vectors.interrupt:

00000010 <_vector_interrupt>:
  10:	b0000000 	imm	0
  14:	b8080724 	brai	1828	// 724 <_interrupt_handler>

Disassembly of section .vectors.hw_exception:

00000020 <_vector_hw_exception>:
  20:	b0000000 	imm	0
  24:	b808076c 	brai	1900	// 76c <_hw_exception_handler>

Disassembly of section .text:

00000050 <_start1>:
      50:	b0000000 	imm	0
      54:	31a03690 	addik	r13, r0, 13968	// 3690 <_SDA_BASE_>
      58:	b0000000 	imm	0
      5c:	30403568 	addik	r2, r0, 13672	// 3568 <_SDA2_BASE_>
      60:	b0000000 	imm	0
      64:	30203df8 	addik	r1, r0, 15864
      68:	b0000000 	imm	0
      6c:	b9f401d0 	brlid	r15, 464	// 23c <_crtinit>
      70:	80000000 	or	r0, r0, r0
      74:	b0000000 	imm	0
      78:	b9f40274 	brlid	r15, 628	// 2ec <exit>
      7c:	30a30000 	addik	r5, r3, 0

00000080 <_exit>:
      80:	b8000000 	bri	0	// 80 <_exit>

00000084 <deregister_tm_clones>:
      84:	b0000000 	imm	0
      88:	30a03690 	addik	r5, r0, 13968	// 3690 <_SDA_BASE_>
      8c:	b0000000 	imm	0
      90:	30603690 	addik	r3, r0, 13968	// 3690 <_SDA_BASE_>
      94:	88632800 	xor	r3, r3, r5
      98:	bc03002c 	beqi	r3, 44		// c4
      9c:	b0000000 	imm	0
      a0:	30600000 	addik	r3, r0, 0
      a4:	bc030020 	beqi	r3, 32		// c4
      a8:	3021ffe4 	addik	r1, r1, -28
      ac:	f9e10000 	swi	r15, r1, 0
      b0:	99fc1800 	brald	r15, r3
      b4:	80000000 	or	r0, r0, r0
      b8:	e9e10000 	lwi	r15, r1, 0
      bc:	b60f0008 	rtsd	r15, 8
      c0:	3021001c 	addik	r1, r1, 28
      c4:	b60f0008 	rtsd	r15, 8
      c8:	80000000 	or	r0, r0, r0

000000cc <register_tm_clones>:
      cc:	b0000000 	imm	0
      d0:	30a03690 	addik	r5, r0, 13968	// 3690 <_SDA_BASE_>
      d4:	b0000000 	imm	0
      d8:	30c03690 	addik	r6, r0, 13968	// 3690 <_SDA_BASE_>
      dc:	14c53000 	rsubk	r6, r5, r6
      e0:	64c60202 	bsrai	r6, r6, 2
      e4:	6466001f 	bsrli	r3, r6, 31
      e8:	10c33000 	addk	r6, r3, r6
      ec:	90c60001 	sra	r6, r6
      f0:	bc06002c 	beqi	r6, 44		// 11c
      f4:	b0000000 	imm	0
      f8:	30600000 	addik	r3, r0, 0
      fc:	bc030020 	beqi	r3, 32		// 11c
     100:	3021ffe4 	addik	r1, r1, -28
     104:	f9e10000 	swi	r15, r1, 0
     108:	99fc1800 	brald	r15, r3
     10c:	80000000 	or	r0, r0, r0
     110:	e9e10000 	lwi	r15, r1, 0
     114:	b60f0008 	rtsd	r15, 8
     118:	3021001c 	addik	r1, r1, 28
     11c:	b60f0008 	rtsd	r15, 8
     120:	80000000 	or	r0, r0, r0

00000124 <__do_global_dtors_aux>:
     124:	b0000000 	imm	0
     128:	e0603690 	lbui	r3, r0, 13968	// 3690 <_SDA_BASE_>
     12c:	bc2300c4 	bnei	r3, 196		// 1f0
     130:	3021ffdc 	addik	r1, r1, -36
     134:	fa61001c 	swi	r19, r1, 28
     138:	b0000000 	imm	0
     13c:	3080309c 	addik	r4, r0, 12444	// 309c <__CTOR_END__>
     140:	b0000000 	imm	0
     144:	326030a0 	addik	r19, r0, 12448	// 30a0 <__DTOR_END__>
     148:	b0000000 	imm	0
     14c:	e8603694 	lwi	r3, r0, 13972	// 3694 <dtor_idx.5366>
     150:	fac10020 	swi	r22, r1, 32
     154:	16649800 	rsubk	r19, r4, r19
     158:	66730202 	bsrai	r19, r19, 2
     15c:	f9e10000 	swi	r15, r1, 0
     160:	3273ffff 	addik	r19, r19, -1
     164:	b0000000 	imm	0
     168:	32c0309c 	addik	r22, r0, 12444	// 309c <__CTOR_END__>
     16c:	16531803 	cmpu	r18, r19, r3
     170:	beb20034 	bgeid	r18, 52		// 1a4
     174:	30630001 	addik	r3, r3, 1
     178:	64830402 	bslli	r4, r3, 2
     17c:	c884b000 	lw	r4, r4, r22
     180:	b0000000 	imm	0
     184:	f8603694 	swi	r3, r0, 13972	// 3694 <dtor_idx.5366>
     188:	99fc2000 	brald	r15, r4
     18c:	80000000 	or	r0, r0, r0
     190:	b0000000 	imm	0
     194:	e8603694 	lwi	r3, r0, 13972	// 3694 <dtor_idx.5366>
     198:	16531803 	cmpu	r18, r19, r3
     19c:	be52ffdc 	bltid	r18, -36		// 178
     1a0:	30630001 	addik	r3, r3, 1
     1a4:	b9f4fee0 	brlid	r15, -288	// 84 <deregister_tm_clones>
     1a8:	80000000 	or	r0, r0, r0
     1ac:	b0000000 	imm	0
     1b0:	30600000 	addik	r3, r0, 0
     1b4:	be030020 	beqid	r3, 32		// 1d4
     1b8:	e9e10000 	lwi	r15, r1, 0
     1bc:	b0000000 	imm	0
     1c0:	30a03690 	addik	r5, r0, 13968	// 3690 <_SDA_BASE_>
     1c4:	b000ffff 	imm	-1
     1c8:	b9f4fe38 	brlid	r15, -456	// 0 <_HEAP_SIZE>
     1cc:	80000000 	or	r0, r0, r0
     1d0:	e9e10000 	lwi	r15, r1, 0
     1d4:	ea61001c 	lwi	r19, r1, 28
     1d8:	eac10020 	lwi	r22, r1, 32
     1dc:	30600001 	addik	r3, r0, 1
     1e0:	b0000000 	imm	0
     1e4:	f0603690 	sbi	r3, r0, 13968	// 3690 <_SDA_BASE_>
     1e8:	b60f0008 	rtsd	r15, 8
     1ec:	30210024 	addik	r1, r1, 36
     1f0:	b60f0008 	rtsd	r15, 8
     1f4:	80000000 	or	r0, r0, r0

000001f8 <frame_dummy>:
     1f8:	b0000000 	imm	0
     1fc:	30600000 	addik	r3, r0, 0
     200:	3021ffe4 	addik	r1, r1, -28
     204:	be030024 	beqid	r3, 36		// 228
     208:	f9e10000 	swi	r15, r1, 0
     20c:	b0000000 	imm	0
     210:	30c03698 	addik	r6, r0, 13976	// 3698 <object.5376>
     214:	b0000000 	imm	0
     218:	30a03690 	addik	r5, r0, 13968	// 3690 <_SDA_BASE_>
     21c:	b000ffff 	imm	-1
     220:	b9f4fde0 	brlid	r15, -544	// 0 <_HEAP_SIZE>
     224:	80000000 	or	r0, r0, r0
     228:	b9f4fea4 	brlid	r15, -348	// cc <register_tm_clones>
     22c:	80000000 	or	r0, r0, r0
     230:	e9e10000 	lwi	r15, r1, 0
     234:	b60f0008 	rtsd	r15, 8
     238:	3021001c 	addik	r1, r1, 28

0000023c <_crtinit>:
     23c:	2021ffd8 	addi	r1, r1, -40
     240:	f9e10000 	swi	r15, r1, 0
     244:	b0000000 	imm	0
     248:	20c03690 	addi	r6, r0, 13968	// 3690 <_SDA_BASE_>
     24c:	b0000000 	imm	0
     250:	20e03690 	addi	r7, r0, 13968	// 3690 <_SDA_BASE_>
     254:	06463800 	rsub	r18, r6, r7
     258:	bc720014 	blei	r18, 20		// 26c
     25c:	f8060000 	swi	r0, r6, 0
     260:	20c60004 	addi	r6, r6, 4
     264:	06463800 	rsub	r18, r6, r7
     268:	bc92fff4 	bgti	r18, -12		// 25c
     26c:	b0000000 	imm	0
     270:	20c03690 	addi	r6, r0, 13968	// 3690 <_SDA_BASE_>
     274:	b0000000 	imm	0
     278:	20e03a14 	addi	r7, r0, 14868	// 3a14 <__bss_end>
     27c:	06463800 	rsub	r18, r6, r7
     280:	bc720014 	blei	r18, 20		// 294
     284:	f8060000 	swi	r0, r6, 0
     288:	20c60004 	addi	r6, r6, 4
     28c:	06463800 	rsub	r18, r6, r7
     290:	bc92fff4 	bgti	r18, -12		// 284
     294:	b0000000 	imm	0
     298:	b9f403fc 	brlid	r15, 1020	// 694 <_program_init>
     29c:	80000000 	or	r0, r0, r0
     2a0:	b0000000 	imm	0
     2a4:	b9f42d94 	brlid	r15, 11668	// 3038 <__init>
     2a8:	80000000 	or	r0, r0, r0
     2ac:	20c00000 	addi	r6, r0, 0
     2b0:	20e00000 	addi	r7, r0, 0
     2b4:	b0000000 	imm	0
     2b8:	b9f404d8 	brlid	r15, 1240	// 790 <main>
     2bc:	20a00000 	addi	r5, r0, 0
     2c0:	32630000 	addik	r19, r3, 0
     2c4:	b0000000 	imm	0
     2c8:	b9f42dac 	brlid	r15, 11692	// 3074 <__fini>
     2cc:	80000000 	or	r0, r0, r0
     2d0:	b0000000 	imm	0
     2d4:	b9f403b8 	brlid	r15, 952	// 68c <_program_clean>
     2d8:	80000000 	or	r0, r0, r0
     2dc:	c9e10000 	lw	r15, r1, r0
     2e0:	30730000 	addik	r3, r19, 0
     2e4:	b60f0008 	rtsd	r15, 8
     2e8:	20210028 	addi	r1, r1, 40

000002ec <exit>:
     2ec:	3021ffe0 	addik	r1, r1, -32
     2f0:	10c00000 	addk	r6, r0, r0
     2f4:	fa61001c 	swi	r19, r1, 28
     2f8:	f9e10000 	swi	r15, r1, 0
     2fc:	b0000000 	imm	0
     300:	b9f40144 	brlid	r15, 324	// 444 <__call_exitprocs>
     304:	12650000 	addk	r19, r5, r0
     308:	b0000000 	imm	0
     30c:	e8a0320c 	lwi	r5, r0, 12812	// 320c <_global_impure_ptr>
     310:	e8650028 	lwi	r3, r5, 40
     314:	bc03000c 	beqi	r3, 12		// 320
     318:	99fc1800 	brald	r15, r3
     31c:	80000000 	or	r0, r0, r0
     320:	b000ffff 	imm	-1
     324:	b9f4fd5c 	brlid	r15, -676	// 80 <_exit>
     328:	10b30000 	addk	r5, r19, r0

0000032c <memcpy>:
     32c:	3140000f 	addik	r10, r0, 15
     330:	16475003 	cmpu	r18, r7, r10
     334:	beb200c8 	bgeid	r18, 200		// 3fc
     338:	10650000 	addk	r3, r5, r0
     33c:	80862800 	or	r4, r6, r5
     340:	a4840003 	andi	r4, r4, 3
     344:	be2400ec 	bneid	r4, 236		// 430
     348:	11270000 	addk	r9, r7, r0
     34c:	11060000 	addk	r8, r6, r0
     350:	10850000 	addk	r4, r5, r0
     354:	e8a80000 	lwi	r5, r8, 0
     358:	e9880004 	lwi	r12, r8, 4
     35c:	3129fff0 	addik	r9, r9, -16
     360:	f8a40000 	swi	r5, r4, 0
     364:	f9840004 	swi	r12, r4, 4
     368:	e8a80008 	lwi	r5, r8, 8
     36c:	e988000c 	lwi	r12, r8, 12
     370:	30840010 	addik	r4, r4, 16
     374:	f8a4fff8 	swi	r5, r4, -8
     378:	f984fffc 	swi	r12, r4, -4
     37c:	16495003 	cmpu	r18, r9, r10
     380:	be52ffd4 	bltid	r18, -44		// 354
     384:	31080010 	addik	r8, r8, 16
     388:	3087fff0 	addik	r4, r7, -16
     38c:	a484fff0 	andi	r4, r4, -16
     390:	30840010 	addik	r4, r4, 16
     394:	a4a7000c 	andi	r5, r7, 12
     398:	10c62000 	addk	r6, r6, r4
     39c:	a547000f 	andi	r10, r7, 15
     3a0:	be05009c 	beqid	r5, 156		// 43c
     3a4:	10832000 	addk	r4, r3, r4
     3a8:	11260000 	addk	r9, r6, r0
     3ac:	11040000 	addk	r8, r4, r0
     3b0:	10aa0000 	addk	r5, r10, r0
     3b4:	31600003 	addik	r11, r0, 3
     3b8:	e9890000 	lwi	r12, r9, 0
     3bc:	30a5fffc 	addik	r5, r5, -4
     3c0:	31080004 	addik	r8, r8, 4
     3c4:	f988fffc 	swi	r12, r8, -4
     3c8:	16455803 	cmpu	r18, r5, r11
     3cc:	be52ffec 	bltid	r18, -20		// 3b8
     3d0:	31290004 	addik	r9, r9, 4
     3d4:	30aafffc 	addik	r5, r10, -4
     3d8:	a4a5fffc 	andi	r5, r5, -4
     3dc:	30a50004 	addik	r5, r5, 4
     3e0:	a4e70003 	andi	r7, r7, 3
     3e4:	10842800 	addk	r4, r4, r5
     3e8:	10c62800 	addk	r6, r6, r5
     3ec:	be270024 	bneid	r7, 36		// 410
     3f0:	3107ffff 	addik	r8, r7, -1
     3f4:	b60f0008 	rtsd	r15, 8
     3f8:	80000000 	or	r0, r0, r0
     3fc:	10850000 	addk	r4, r5, r0
     400:	be270010 	bneid	r7, 16		// 410
     404:	3107ffff 	addik	r8, r7, -1
     408:	b800ffec 	bri	-20		// 3f4
     40c:	11070000 	addk	r8, r7, r0
     410:	e0a60000 	lbui	r5, r6, 0
     414:	30e8ffff 	addik	r7, r8, -1
     418:	30840001 	addik	r4, r4, 1
     41c:	f0a4ffff 	sbi	r5, r4, -1
     420:	be28ffec 	bneid	r8, -20		// 40c
     424:	30c60001 	addik	r6, r6, 1
     428:	b60f0008 	rtsd	r15, 8
     42c:	80000000 	or	r0, r0, r0
     430:	3107ffff 	addik	r8, r7, -1
     434:	b810ffdc 	brid	-36		// 410
     438:	10850000 	addk	r4, r5, r0
     43c:	b810ffc4 	brid	-60	// 400 <_STACK_SIZE>
     440:	10ea0000 	addk	r7, r10, r0

00000444 <__call_exitprocs>:
     444:	3021ffb8 	addik	r1, r1, -72
     448:	fb410030 	swi	r26, r1, 48
     44c:	b0000000 	imm	0
     450:	eb40320c 	lwi	r26, r0, 12812	// 320c <_global_impure_ptr>
     454:	fb21002c 	swi	r25, r1, 44
     458:	fb610034 	swi	r27, r1, 52
     45c:	fba1003c 	swi	r29, r1, 60
     460:	13250000 	addk	r25, r5, r0
     464:	13a60000 	addk	r29, r6, r0
     468:	b0000000 	imm	0
     46c:	33600000 	addik	r27, r0, 0
     470:	fb010028 	swi	r24, r1, 40
     474:	fb810038 	swi	r28, r1, 56
     478:	f9e10000 	swi	r15, r1, 0
     47c:	fa61001c 	swi	r19, r1, 28
     480:	fac10020 	swi	r22, r1, 32
     484:	fae10024 	swi	r23, r1, 36
     488:	fbc10040 	swi	r30, r1, 64
     48c:	fbe10044 	swi	r31, r1, 68
     490:	339a0048 	addik	r28, r26, 72
     494:	33000001 	addik	r24, r0, 1
     498:	eada0048 	lwi	r22, r26, 72
     49c:	13dc0000 	addk	r30, r28, r0
     4a0:	be160084 	beqid	r22, 132		// 524
     4a4:	e9e10000 	lwi	r15, r1, 0
     4a8:	ea760004 	lwi	r19, r22, 4
     4ac:	3273ffff 	addik	r19, r19, -1
     4b0:	be530030 	bltid	r19, 48		// 4e0
     4b4:	eaf60088 	lwi	r23, r22, 136
     4b8:	bc1d00a0 	beqi	r29, 160		// 558
     4bc:	be170018 	beqid	r23, 24		// 4d4
     4c0:	30730020 	addik	r3, r19, 32
     4c4:	64630402 	bslli	r3, r3, 2
     4c8:	c863b800 	lw	r3, r3, r23
     4cc:	8863e800 	xor	r3, r3, r29
     4d0:	bc030088 	beqi	r3, 136		// 558
     4d4:	3273ffff 	addik	r19, r19, -1
     4d8:	a873ffff 	xori	r3, r19, -1
     4dc:	bc23ffdc 	bnei	r3, -36		// 4b8
     4e0:	be1b0044 	beqid	r27, 68		// 524
     4e4:	e9e10000 	lwi	r15, r1, 0
     4e8:	e8960004 	lwi	r4, r22, 4
     4ec:	be240110 	bneid	r4, 272		// 5fc
     4f0:	e8760000 	lwi	r3, r22, 0
     4f4:	bc030108 	beqi	r3, 264		// 5fc
     4f8:	be170014 	beqid	r23, 20		// 50c
     4fc:	f87e0000 	swi	r3, r30, 0
     500:	b000ffff 	imm	-1
     504:	b9f4fafc 	brlid	r15, -1284	// 0 <_HEAP_SIZE>
     508:	10b70000 	addk	r5, r23, r0
     50c:	b000ffff 	imm	-1
     510:	b9f4faf0 	brlid	r15, -1296	// 0 <_HEAP_SIZE>
     514:	10b60000 	addk	r5, r22, r0
     518:	eade0000 	lwi	r22, r30, 0
     51c:	be36ff8c 	bneid	r22, -116		// 4a8
     520:	e9e10000 	lwi	r15, r1, 0
     524:	ea61001c 	lwi	r19, r1, 28
     528:	eac10020 	lwi	r22, r1, 32
     52c:	eae10024 	lwi	r23, r1, 36
     530:	eb010028 	lwi	r24, r1, 40
     534:	eb21002c 	lwi	r25, r1, 44
     538:	eb410030 	lwi	r26, r1, 48
     53c:	eb610034 	lwi	r27, r1, 52
     540:	eb810038 	lwi	r28, r1, 56
     544:	eba1003c 	lwi	r29, r1, 60
     548:	ebc10040 	lwi	r30, r1, 64
     54c:	ebe10044 	lwi	r31, r1, 68
     550:	b60f0008 	rtsd	r15, 8
     554:	30210048 	addik	r1, r1, 72
     558:	e8760004 	lwi	r3, r22, 4
     55c:	64d30402 	bslli	r6, r19, 2
     560:	3063ffff 	addik	r3, r3, -1
     564:	10b63000 	addk	r5, r22, r6
     568:	88639800 	xor	r3, r3, r19
     56c:	be030078 	beqid	r3, 120		// 5e4
     570:	e8850008 	lwi	r4, r5, 8
     574:	f8050008 	swi	r0, r5, 8
     578:	bc04ff5c 	beqi	r4, -164		// 4d4
     57c:	be170058 	beqid	r23, 88		// 5d4
     580:	ebf60004 	lwi	r31, r22, 4
     584:	e8b70100 	lwi	r5, r23, 256
     588:	44f89c00 	bsll	r7, r24, r19
     58c:	84a72800 	and	r5, r7, r5
     590:	bc050044 	beqi	r5, 68		// 5d4
     594:	e8770104 	lwi	r3, r23, 260
     598:	c8a6b800 	lw	r5, r6, r23
     59c:	84e71800 	and	r7, r7, r3
     5a0:	be27004c 	bneid	r7, 76		// 5ec
     5a4:	10c50000 	addk	r6, r5, r0
     5a8:	99fc2000 	brald	r15, r4
     5ac:	10b90000 	addk	r5, r25, r0
     5b0:	e8760004 	lwi	r3, r22, 4
     5b4:	8863f800 	xor	r3, r3, r31
     5b8:	bc23fee0 	bnei	r3, -288		// 498
     5bc:	e87e0000 	lwi	r3, r30, 0
     5c0:	8863b000 	xor	r3, r3, r22
     5c4:	be03ff14 	beqid	r3, -236		// 4d8
     5c8:	3273ffff 	addik	r19, r19, -1
     5cc:	b810fed0 	brid	-304		// 49c
     5d0:	eada0048 	lwi	r22, r26, 72
     5d4:	99fc2000 	brald	r15, r4
     5d8:	80000000 	or	r0, r0, r0
     5dc:	b810ffd8 	brid	-40		// 5b4
     5e0:	e8760004 	lwi	r3, r22, 4
     5e4:	b810ff94 	brid	-108		// 578
     5e8:	fa760004 	swi	r19, r22, 4
     5ec:	99fc2000 	brald	r15, r4
     5f0:	80000000 	or	r0, r0, r0
     5f4:	b810ffc0 	brid	-64		// 5b4
     5f8:	e8760004 	lwi	r3, r22, 4
     5fc:	13d60000 	addk	r30, r22, r0
     600:	b810fea0 	brid	-352		// 4a0
     604:	12c30000 	addk	r22, r3, r0

00000608 <putnum>:
     608:	3021ffd8 	addik	r1, r1, -40
     60c:	f9e10000 	swi	r15, r1, 0
     610:	3101001c 	addik	r8, r1, 28
     614:	30c00008 	addik	r6, r0, 8	// 8 <_vector_sw_exception>
     618:	30e00007 	addik	r7, r0, 7
     61c:	b810001c 	brid	28		// 638
     620:	31600009 	addik	r11, r0, 9
     624:	f1480000 	sbi	r10, r8, 0
     628:	30c6ffff 	addik	r6, r6, -1
     62c:	30e7ffff 	addik	r7, r7, -1
     630:	be060040 	beqid	r6, 64		// 670
     634:	11090000 	addk	r8, r9, r0
     638:	64670402 	bslli	r3, r7, 2
     63c:	44651800 	bsrl	r3, r5, r3
     640:	a463000f 	andi	r3, r3, 15
     644:	a48300ff 	andi	r4, r3, 255
     648:	31440030 	addik	r10, r4, 48
     64c:	31280001 	addik	r9, r8, 1
     650:	16435801 	cmp	r18, r3, r11
     654:	beb2ffd0 	bgeid	r18, -48		// 624
     658:	30840057 	addik	r4, r4, 87
     65c:	f0880000 	sbi	r4, r8, 0
     660:	30c6ffff 	addik	r6, r6, -1
     664:	30e7ffff 	addik	r7, r7, -1
     668:	be26ffd0 	bneid	r6, -48		// 638
     66c:	11090000 	addk	r8, r9, r0
     670:	30a1001c 	addik	r5, r1, 28
     674:	b0000000 	imm	0
     678:	b9f41a10 	brlid	r15, 6672	// 2088 <print>
     67c:	f0c10024 	sbi	r6, r1, 36
     680:	e9e10000 	lwi	r15, r1, 0
     684:	b60f0008 	rtsd	r15, 8
     688:	30210028 	addik	r1, r1, 40

0000068c <_program_clean>:
     68c:	b60f0008 	rtsd	r15, 8
     690:	80000000 	or	r0, r0, r0

00000694 <_program_init>:
     694:	b60f0008 	rtsd	r15, 8
     698:	80000000 	or	r0, r0, r0

0000069c <__do_global_ctors_aux>:
     69c:	3021fff8 	addik	r1, r1, -8
     6a0:	fa610004 	swi	r19, r1, 4
     6a4:	b0000000 	imm	0
     6a8:	32603098 	addik	r19, r0, 12440	// 3098 <__CTOR_END__>
     6ac:	f9e10000 	swi	r15, r1, 0
     6b0:	e873fffc 	lwi	r3, r19, -4
     6b4:	a883ffff 	xori	r4, r3, -1
     6b8:	be04001c 	beqid	r4, 28		// 6d4
     6bc:	3273fffc 	addik	r19, r19, -4
     6c0:	99fc1800 	brald	r15, r3
     6c4:	3273fffc 	addik	r19, r19, -4
     6c8:	e8730000 	lwi	r3, r19, 0
     6cc:	a883ffff 	xori	r4, r3, -1
     6d0:	bc24fff0 	bnei	r4, -16		// 6c0
     6d4:	e9e10000 	lwi	r15, r1, 0
     6d8:	ea610004 	lwi	r19, r1, 4
     6dc:	b60f0008 	rtsd	r15, 8
     6e0:	30210008 	addik	r1, r1, 8

000006e4 <Xil_Out32>:
     6e4:	3021ffec 	addik	r1, r1, -20
     6e8:	fa610010 	swi	r19, r1, 16
     6ec:	12610000 	addk	r19, r1, r0
     6f0:	f8b30008 	swi	r5, r19, 8
     6f4:	f8d3000c 	swi	r6, r19, 12
     6f8:	e8730008 	lwi	r3, r19, 8
     6fc:	f8730004 	swi	r3, r19, 4
     700:	e8730004 	lwi	r3, r19, 4
     704:	e893000c 	lwi	r4, r19, 12
     708:	f8830000 	swi	r4, r3, 0
     70c:	80000000 	or	r0, r0, r0
     710:	10330000 	addk	r1, r19, r0
     714:	ea610010 	lwi	r19, r1, 16
     718:	30210014 	addik	r1, r1, 20
     71c:	b60f0008 	rtsd	r15, 8
     720:	80000000 	or	r0, r0, r0

00000724 <_interrupt_handler>:
     724:	3021fff8 	addik	r1, r1, -8
     728:	fa610004 	swi	r19, r1, 4
     72c:	12610000 	addk	r19, r1, r0
     730:	80000000 	or	r0, r0, r0
     734:	10330000 	addk	r1, r19, r0
     738:	ea610004 	lwi	r19, r1, 4
     73c:	30210008 	addik	r1, r1, 8
     740:	b60f0008 	rtsd	r15, 8
     744:	80000000 	or	r0, r0, r0

00000748 <_exception_handler>:
     748:	3021fff8 	addik	r1, r1, -8
     74c:	fa610004 	swi	r19, r1, 4
     750:	12610000 	addk	r19, r1, r0
     754:	80000000 	or	r0, r0, r0
     758:	10330000 	addk	r1, r19, r0
     75c:	ea610004 	lwi	r19, r1, 4
     760:	30210008 	addik	r1, r1, 8
     764:	b60f0008 	rtsd	r15, 8
     768:	80000000 	or	r0, r0, r0

0000076c <_hw_exception_handler>:
     76c:	3021fff8 	addik	r1, r1, -8
     770:	fa610004 	swi	r19, r1, 4
     774:	12610000 	addk	r19, r1, r0
     778:	80000000 	or	r0, r0, r0
     77c:	10330000 	addk	r1, r19, r0
     780:	ea610004 	lwi	r19, r1, 4
     784:	30210008 	addik	r1, r1, 8
     788:	b60f0008 	rtsd	r15, 8
     78c:	80000000 	or	r0, r0, r0

00000790 <main>:
     790:	3021ffd8 	addik	r1, r1, -40
     794:	f9e10000 	swi	r15, r1, 0
     798:	fa610024 	swi	r19, r1, 36
     79c:	12610000 	addk	r19, r1, r0
     7a0:	b0000000 	imm	0
     7a4:	30a03138 	addik	r5, r0, 12600
     7a8:	b0000000 	imm	0
     7ac:	b9f418dc 	brlid	r15, 6364	// 2088 <print>
     7b0:	80000000 	or	r0, r0, r0
     7b4:	10c00000 	addk	r6, r0, r0
     7b8:	b0000000 	imm	0
     7bc:	30a036f4 	addik	r5, r0, 14068	// 36f4 <Spi>
     7c0:	b0000000 	imm	0
     7c4:	b9f4182c 	brlid	r15, 6188	// 1ff0 <XSpi_Initialize>
     7c8:	80000000 	or	r0, r0, r0
     7cc:	f873001c 	swi	r3, r19, 28
     7d0:	e873001c 	lwi	r3, r19, 28
     7d4:	bc03000c 	beqi	r3, 12		// 7e0
     7d8:	30600001 	addik	r3, r0, 1
     7dc:	b800017c 	bri	380		// 958
     7e0:	b0000000 	imm	0
     7e4:	30a036f4 	addik	r5, r0, 14068	// 36f4 <Spi>
     7e8:	b0000000 	imm	0
     7ec:	b9f40fc4 	brlid	r15, 4036	// 17b0 <XSpi_Start>
     7f0:	80000000 	or	r0, r0, r0
     7f4:	b0000000 	imm	0
     7f8:	e860370c 	lwi	r3, r0, 14092
     7fc:	3063001c 	addik	r3, r3, 28
     800:	10c00000 	addk	r6, r0, r0
     804:	10a30000 	addk	r5, r3, r0
     808:	b000ffff 	imm	-1
     80c:	b9f4fed8 	brlid	r15, -296	// 6e4 <Xil_Out32>
     810:	80000000 	or	r0, r0, r0
     814:	b0000000 	imm	0
     818:	31003a00 	addik	r8, r0, 14848	// 3a00 <IsfWriteBuffer>
     81c:	30e00001 	addik	r7, r0, 1
     820:	b0000000 	imm	0
     824:	30c036f4 	addik	r6, r0, 14068	// 36f4 <Spi>
     828:	b0000000 	imm	0
     82c:	30a036b0 	addik	r5, r0, 14000	// 36b0 <Isf>
     830:	b0000000 	imm	0
     834:	b9f41c98 	brlid	r15, 7320	// 24cc <XIsf_Initialize>
     838:	80000000 	or	r0, r0, r0
     83c:	f873001c 	swi	r3, r19, 28
     840:	e873001c 	lwi	r3, r19, 28
     844:	bc03000c 	beqi	r3, 12		// 850
     848:	30600001 	addik	r3, r0, 1
     84c:	b800010c 	bri	268		// 958
     850:	b0000000 	imm	0
     854:	b9f406f4 	brlid	r15, 1780	// f48 <init_stdout>
     858:	80000000 	or	r0, r0, r0
     85c:	b0000000 	imm	0
     860:	30a03150 	addik	r5, r0, 12624
     864:	b0000000 	imm	0
     868:	b9f41820 	brlid	r15, 6176	// 2088 <print>
     86c:	80000000 	or	r0, r0, r0
     870:	b0000100 	imm	256
     874:	30a00000 	addik	r5, r0, 0
     878:	b000ffff 	imm	-1
     87c:	b9f4fd8c 	brlid	r15, -628	// 608 <putnum>
     880:	80000000 	or	r0, r0, r0
     884:	b0000000 	imm	0
     888:	30a0317c 	addik	r5, r0, 12668
     88c:	b0000000 	imm	0
     890:	b9f417f8 	brlid	r15, 6136	// 2088 <print>
     894:	80000000 	or	r0, r0, r0
     898:	b0000100 	imm	256
     89c:	30600000 	addik	r3, r0, 0
     8a0:	b0000000 	imm	0
     8a4:	f86038e0 	swi	r3, r0, 14560	// 38e0 <flbuf>
     8a8:	b0000000 	imm	0
     8ac:	b9f4013c 	brlid	r15, 316	// 9e8 <load_exec>
     8b0:	80000000 	or	r0, r0, r0
     8b4:	f0730020 	sbi	r3, r19, 32
     8b8:	e0930020 	lbui	r4, r19, 32
     8bc:	30600002 	addik	r3, r0, 2
     8c0:	16441803 	cmpu	r18, r4, r3
     8c4:	bcb20058 	bgei	r18, 88		// 91c
     8c8:	b0000000 	imm	0
     8cc:	30a03180 	addik	r5, r0, 12672
     8d0:	b0000000 	imm	0
     8d4:	b9f417b4 	brlid	r15, 6068	// 2088 <print>
     8d8:	80000000 	or	r0, r0, r0
     8dc:	b0000000 	imm	0
     8e0:	e86038e4 	lwi	r3, r0, 14564	// 38e4 <srec_line>
     8e4:	10a30000 	addk	r5, r3, r0
     8e8:	b000ffff 	imm	-1
     8ec:	b9f4fd1c 	brlid	r15, -740	// 608 <putnum>
     8f0:	80000000 	or	r0, r0, r0
     8f4:	e0730020 	lbui	r3, r19, 32
     8f8:	64630402 	bslli	r3, r3, 2
     8fc:	b0000000 	imm	0
     900:	3063365c 	addik	r3, r3, 13916
     904:	e8630000 	lwi	r3, r3, 0
     908:	10a30000 	addk	r5, r3, r0
     90c:	b0000000 	imm	0
     910:	b9f41778 	brlid	r15, 6008	// 2088 <print>
     914:	80000000 	or	r0, r0, r0
     918:	b800003c 	bri	60		// 954
     91c:	b0000000 	imm	0
     920:	30a03198 	addik	r5, r0, 12696
     924:	b0000000 	imm	0
     928:	b9f41760 	brlid	r15, 5984	// 2088 <print>
     92c:	80000000 	or	r0, r0, r0
     930:	e0730020 	lbui	r3, r19, 32
     934:	64630402 	bslli	r3, r3, 2
     938:	b0000000 	imm	0
     93c:	3063365c 	addik	r3, r3, 13916
     940:	e8630000 	lwi	r3, r3, 0
     944:	10a30000 	addk	r5, r3, r0
     948:	b0000000 	imm	0
     94c:	b9f4173c 	brlid	r15, 5948	// 2088 <print>
     950:	80000000 	or	r0, r0, r0
     954:	e0730020 	lbui	r3, r19, 32
     958:	e9e10000 	lwi	r15, r1, 0
     95c:	10330000 	addk	r1, r19, r0
     960:	ea610024 	lwi	r19, r1, 36
     964:	30210028 	addik	r1, r1, 40
     968:	b60f0008 	rtsd	r15, 8
     96c:	80000000 	or	r0, r0, r0

00000970 <display_progress>:
     970:	3021ffdc 	addik	r1, r1, -36
     974:	f9e10000 	swi	r15, r1, 0
     978:	fa610020 	swi	r19, r1, 32
     97c:	12610000 	addk	r19, r1, r0
     980:	f8b3001c 	swi	r5, r19, 28
     984:	30a0000d 	addik	r5, r0, 13
     988:	b0000000 	imm	0
     98c:	b9f4178c 	brlid	r15, 6028	// 2118 <outbyte>
     990:	80000000 	or	r0, r0, r0
     994:	b0000000 	imm	0
     998:	30a031a0 	addik	r5, r0, 12704
     99c:	b0000000 	imm	0
     9a0:	b9f416e8 	brlid	r15, 5864	// 2088 <print>
     9a4:	80000000 	or	r0, r0, r0
     9a8:	e8b3001c 	lwi	r5, r19, 28
     9ac:	b000ffff 	imm	-1
     9b0:	b9f4fc58 	brlid	r15, -936	// 608 <putnum>
     9b4:	80000000 	or	r0, r0, r0
     9b8:	b0000000 	imm	0
     9bc:	30a031bc 	addik	r5, r0, 12732
     9c0:	b0000000 	imm	0
     9c4:	b9f416c4 	brlid	r15, 5828	// 2088 <print>
     9c8:	80000000 	or	r0, r0, r0
     9cc:	80000000 	or	r0, r0, r0
     9d0:	e9e10000 	lwi	r15, r1, 0
     9d4:	10330000 	addk	r1, r19, r0
     9d8:	ea610020 	lwi	r19, r1, 32
     9dc:	30210024 	addik	r1, r1, 36
     9e0:	b60f0008 	rtsd	r15, 8
     9e4:	80000000 	or	r0, r0, r0

000009e8 <load_exec>:
     9e8:	3021ffd8 	addik	r1, r1, -40
     9ec:	f9e10000 	swi	r15, r1, 0
     9f0:	fa610024 	swi	r19, r1, 36
     9f4:	12610000 	addk	r19, r1, r0
     9f8:	f0130020 	sbi	r0, r19, 32
     9fc:	b0000000 	imm	0
     a00:	30603864 	addik	r3, r0, 14436	// 3864 <sr_data_buf>
     a04:	b0000000 	imm	0
     a08:	f860375c 	swi	r3, r0, 14172
     a0c:	b80000f0 	bri	240		// afc
     a10:	b0000000 	imm	0
     a14:	30a03764 	addik	r5, r0, 14180	// 3764 <sr_buf>
     a18:	b0000000 	imm	0
     a1c:	b9f40150 	brlid	r15, 336	// b6c <flash_get_srec_line>
     a20:	80000000 	or	r0, r0, r0
     a24:	f0730021 	sbi	r3, r19, 33
     a28:	e0730021 	lbui	r3, r19, 33
     a2c:	bc03000c 	beqi	r3, 12		// a38
     a30:	e0730021 	lbui	r3, r19, 33
     a34:	b8000120 	bri	288		// b54
     a38:	b0000000 	imm	0
     a3c:	30c03754 	addik	r6, r0, 14164	// 3754 <srinfo>
     a40:	b0000000 	imm	0
     a44:	30a03764 	addik	r5, r0, 14180	// 3764 <sr_buf>
     a48:	b0000000 	imm	0
     a4c:	b9f40900 	brlid	r15, 2304	// 134c <decode_srec_line>
     a50:	80000000 	or	r0, r0, r0
     a54:	f0730021 	sbi	r3, r19, 33
     a58:	e0730021 	lbui	r3, r19, 33
     a5c:	bc03000c 	beqi	r3, 12		// a68
     a60:	e0730021 	lbui	r3, r19, 33
     a64:	b80000f0 	bri	240		// b54
     a68:	b0000000 	imm	0
     a6c:	e86038e4 	lwi	r3, r0, 14564	// 38e4 <srec_line>
     a70:	10a30000 	addk	r5, r3, r0
     a74:	b000ffff 	imm	-1
     a78:	b9f4fef8 	brlid	r15, -264	// 970 <display_progress>
     a7c:	80000000 	or	r0, r0, r0
     a80:	b0000000 	imm	0
     a84:	e0603754 	lbui	r3, r0, 14164	// 3754 <srinfo>
     a88:	90630060 	sext8	r3, r3
     a8c:	30800009 	addik	r4, r0, 9
     a90:	16432003 	cmpu	r18, r3, r4
     a94:	bc520068 	blti	r18, 104		// afc
     a98:	64630402 	bslli	r3, r3, 2
     a9c:	b0000000 	imm	0
     aa0:	30633230 	addik	r3, r3, 12848
     aa4:	e8630000 	lwi	r3, r3, 0
     aa8:	98081800 	bra	r3
     aac:	b0000000 	imm	0
     ab0:	e8603758 	lwi	r3, r0, 14168
     ab4:	b0000000 	imm	0
     ab8:	e880375c 	lwi	r4, r0, 14172
     abc:	b0000000 	imm	0
     ac0:	e0a03760 	lbui	r5, r0, 14176
     ac4:	10e50000 	addk	r7, r5, r0
     ac8:	10c40000 	addk	r6, r4, r0
     acc:	10a30000 	addk	r5, r3, r0
     ad0:	b000ffff 	imm	-1
     ad4:	b9f4f858 	brlid	r15, -1960	// 32c <memcpy>
     ad8:	80000000 	or	r0, r0, r0
     adc:	b8000020 	bri	32		// afc
     ae0:	b0000000 	imm	0
     ae4:	e8603758 	lwi	r3, r0, 14168
     ae8:	f873001c 	swi	r3, r19, 28
     aec:	30600001 	addik	r3, r0, 1
     af0:	f0730020 	sbi	r3, r19, 32
     af4:	f0130021 	sbi	r0, r19, 33
     af8:	80000000 	or	r0, r0, r0
     afc:	e0730020 	lbui	r3, r19, 32
     b00:	90630060 	sext8	r3, r3
     b04:	bc03ff0c 	beqi	r3, -244		// a10
     b08:	b0000000 	imm	0
     b0c:	30a031c8 	addik	r5, r0, 12744
     b10:	b0000000 	imm	0
     b14:	b9f41574 	brlid	r15, 5492	// 2088 <print>
     b18:	80000000 	or	r0, r0, r0
     b1c:	e873001c 	lwi	r3, r19, 28
     b20:	10a30000 	addk	r5, r3, r0
     b24:	b000ffff 	imm	-1
     b28:	b9f4fae0 	brlid	r15, -1312	// 608 <putnum>
     b2c:	80000000 	or	r0, r0, r0
     b30:	b0000000 	imm	0
     b34:	30a0317c 	addik	r5, r0, 12668
     b38:	b0000000 	imm	0
     b3c:	b9f4154c 	brlid	r15, 5452	// 2088 <print>
     b40:	80000000 	or	r0, r0, r0
     b44:	e873001c 	lwi	r3, r19, 28
     b48:	99fc1800 	brald	r15, r3
     b4c:	80000000 	or	r0, r0, r0
     b50:	10600000 	addk	r3, r0, r0
     b54:	e9e10000 	lwi	r15, r1, 0
     b58:	10330000 	addk	r1, r19, r0
     b5c:	ea610024 	lwi	r19, r1, 36
     b60:	30210028 	addik	r1, r1, 40
     b64:	b60f0008 	rtsd	r15, 8
     b68:	80000000 	or	r0, r0, r0

00000b6c <flash_get_srec_line>:
     b6c:	3021ffd0 	addik	r1, r1, -48
     b70:	f9e10000 	swi	r15, r1, 0
     b74:	fa61002c 	swi	r19, r1, 44
     b78:	12610000 	addk	r19, r1, r0
     b7c:	f8b30034 	swi	r5, r19, 52
     b80:	f813001c 	swi	r0, r19, 28
     b84:	30600004 	addik	r3, r0, 4
     b88:	f8730020 	swi	r3, r19, 32
     b8c:	30600001 	addik	r3, r0, 1
     b90:	b0000000 	imm	0
     b94:	f8603750 	swi	r3, r0, 14160	// 3750 <TransferInProgress>
     b98:	b0000000 	imm	0
     b9c:	e86038e0 	lwi	r3, r0, 14560	// 38e0 <flbuf>
     ba0:	30830001 	addik	r4, r3, 1
     ba4:	b0000000 	imm	0
     ba8:	f88038e0 	swi	r4, r0, 14560	// 38e0 <flbuf>
     bac:	b0000000 	imm	0
     bb0:	f86038ec 	swi	r3, r0, 14572	// 38ec <ReadParam>
     bb4:	30600001 	addik	r3, r0, 1
     bb8:	b0000000 	imm	0
     bbc:	f86038f4 	swi	r3, r0, 14580
     bc0:	b0000000 	imm	0
     bc4:	306038fc 	addik	r3, r0, 14588	// 38fc <ReadBuffer>
     bc8:	b0000000 	imm	0
     bcc:	f86038f0 	swi	r3, r0, 14576
     bd0:	b0000000 	imm	0
     bd4:	e86036c0 	lwi	r3, r0, 14016
     bd8:	a8630020 	xori	r3, r3, 32
     bdc:	bc030014 	beqi	r3, 20		// bf0
     be0:	b0000000 	imm	0
     be4:	e86036c0 	lwi	r3, r0, 14016
     be8:	a8630001 	xori	r3, r3, 1
     bec:	bc2300a4 	bnei	r3, 164		// c90
     bf0:	b0000000 	imm	0
     bf4:	e46036bc 	lhui	r3, r0, 14012
     bf8:	a48300ff 	andi	r4, r3, 255
     bfc:	30600018 	addik	r3, r0, 24
     c00:	16441803 	cmpu	r18, r4, r3
     c04:	bcb2008c 	bgei	r18, 140		// c90
     c08:	30c00001 	addik	r6, r0, 1
     c0c:	b0000000 	imm	0
     c10:	30a036b0 	addik	r5, r0, 14000	// 36b0 <Isf>
     c14:	b0000000 	imm	0
     c18:	b9f41a38 	brlid	r15, 6712	// 2650 <XIsf_WriteEnable>
     c1c:	80000000 	or	r0, r0, r0
     c20:	f8730024 	swi	r3, r19, 36
     c24:	e8730024 	lwi	r3, r19, 36
     c28:	bc03000c 	beqi	r3, 12		// c34
     c2c:	30600001 	addik	r3, r0, 1
     c30:	b8000238 	bri	568		// e68
     c34:	b0000000 	imm	0
     c38:	b9f40248 	brlid	r15, 584	// e80 <IsfWaitForFlashNotBusy>
     c3c:	80000000 	or	r0, r0, r0
     c40:	f8730024 	swi	r3, r19, 36
     c44:	e8730024 	lwi	r3, r19, 36
     c48:	bc03000c 	beqi	r3, 12		// c54
     c4c:	30600001 	addik	r3, r0, 1
     c50:	b8000218 	bri	536		// e68
     c54:	30600005 	addik	r3, r0, 5
     c58:	f8730020 	swi	r3, r19, 32
     c5c:	b0000000 	imm	0
     c60:	30a036b0 	addik	r5, r0, 14000	// 36b0 <Isf>
     c64:	b0000000 	imm	0
     c68:	b9f41aa0 	brlid	r15, 6816	// 2708 <XIsf_MicronFlashEnter4BAddMode>
     c6c:	80000000 	or	r0, r0, r0
     c70:	b0000000 	imm	0
     c74:	b9f4020c 	brlid	r15, 524	// e80 <IsfWaitForFlashNotBusy>
     c78:	80000000 	or	r0, r0, r0
     c7c:	f8730024 	swi	r3, r19, 36
     c80:	e8730024 	lwi	r3, r19, 36
     c84:	bc03000c 	beqi	r3, 12		// c90
     c88:	30600001 	addik	r3, r0, 1
     c8c:	b80001dc 	bri	476		// e68
     c90:	b0000000 	imm	0
     c94:	30e038ec 	addik	r7, r0, 14572	// 38ec <ReadParam>
     c98:	10c00000 	addk	r6, r0, r0
     c9c:	b0000000 	imm	0
     ca0:	30a036b0 	addik	r5, r0, 14000	// 36b0 <Isf>
     ca4:	b0000000 	imm	0
     ca8:	b9f41e18 	brlid	r15, 7704	// 2ac0 <XIsf_Read>
     cac:	80000000 	or	r0, r0, r0
     cb0:	f8730024 	swi	r3, r19, 36
     cb4:	e8730024 	lwi	r3, r19, 36
     cb8:	bc03000c 	beqi	r3, 12		// cc4
     cbc:	30600001 	addik	r3, r0, 1
     cc0:	b80001a8 	bri	424		// e68
     cc4:	b0000000 	imm	0
     cc8:	b9f401b8 	brlid	r15, 440	// e80 <IsfWaitForFlashNotBusy>
     ccc:	80000000 	or	r0, r0, r0
     cd0:	e8730020 	lwi	r3, r19, 32
     cd4:	b0000000 	imm	0
     cd8:	306338fc 	addik	r3, r3, 14588
     cdc:	e0630000 	lbui	r3, r3, 0
     ce0:	f0730028 	sbi	r3, r19, 40
     ce4:	e0730028 	lbui	r3, r19, 40
     ce8:	a863000d 	xori	r3, r3, 13
     cec:	bc230090 	bnei	r3, 144		// d7c
     cf0:	30600001 	addik	r3, r0, 1
     cf4:	b0000000 	imm	0
     cf8:	f8603750 	swi	r3, r0, 14160	// 3750 <TransferInProgress>
     cfc:	b0000000 	imm	0
     d00:	e86038e0 	lwi	r3, r0, 14560	// 38e0 <flbuf>
     d04:	30830001 	addik	r4, r3, 1
     d08:	b0000000 	imm	0
     d0c:	f88038e0 	swi	r4, r0, 14560	// 38e0 <flbuf>
     d10:	b0000000 	imm	0
     d14:	f86038ec 	swi	r3, r0, 14572	// 38ec <ReadParam>
     d18:	30600001 	addik	r3, r0, 1
     d1c:	b0000000 	imm	0
     d20:	f86038f4 	swi	r3, r0, 14580
     d24:	b0000000 	imm	0
     d28:	306038fc 	addik	r3, r0, 14588	// 38fc <ReadBuffer>
     d2c:	b0000000 	imm	0
     d30:	f86038f0 	swi	r3, r0, 14576
     d34:	b0000000 	imm	0
     d38:	30e038ec 	addik	r7, r0, 14572	// 38ec <ReadParam>
     d3c:	10c00000 	addk	r6, r0, r0
     d40:	b0000000 	imm	0
     d44:	30a036b0 	addik	r5, r0, 14000	// 36b0 <Isf>
     d48:	b0000000 	imm	0
     d4c:	b9f41d74 	brlid	r15, 7540	// 2ac0 <XIsf_Read>
     d50:	80000000 	or	r0, r0, r0
     d54:	b0000000 	imm	0
     d58:	b9f40128 	brlid	r15, 296	// e80 <IsfWaitForFlashNotBusy>
     d5c:	80000000 	or	r0, r0, r0
     d60:	e8730020 	lwi	r3, r19, 32
     d64:	b0000000 	imm	0
     d68:	306338fc 	addik	r3, r3, 14588
     d6c:	e0630000 	lbui	r3, r3, 0
     d70:	f0730028 	sbi	r3, r19, 40
     d74:	10600000 	addk	r3, r0, r0
     d78:	b80000f0 	bri	240		// e68
     d7c:	b0000000 	imm	0
     d80:	e86036c0 	lwi	r3, r0, 14016
     d84:	a8630020 	xori	r3, r3, 32
     d88:	bc030014 	beqi	r3, 20		// d9c
     d8c:	b0000000 	imm	0
     d90:	e86036c0 	lwi	r3, r0, 14016
     d94:	a8630001 	xori	r3, r3, 1
     d98:	bc23009c 	bnei	r3, 156		// e34
     d9c:	b0000000 	imm	0
     da0:	e46036bc 	lhui	r3, r0, 14012
     da4:	a48300ff 	andi	r4, r3, 255
     da8:	30600018 	addik	r3, r0, 24
     dac:	16441803 	cmpu	r18, r4, r3
     db0:	bcb20084 	bgei	r18, 132		// e34
     db4:	30c00001 	addik	r6, r0, 1
     db8:	b0000000 	imm	0
     dbc:	30a036b0 	addik	r5, r0, 14000	// 36b0 <Isf>
     dc0:	b0000000 	imm	0
     dc4:	b9f4188c 	brlid	r15, 6284	// 2650 <XIsf_WriteEnable>
     dc8:	80000000 	or	r0, r0, r0
     dcc:	f8730024 	swi	r3, r19, 36
     dd0:	e8730024 	lwi	r3, r19, 36
     dd4:	bc03000c 	beqi	r3, 12		// de0
     dd8:	30600001 	addik	r3, r0, 1
     ddc:	b800008c 	bri	140		// e68
     de0:	b0000000 	imm	0
     de4:	b9f4009c 	brlid	r15, 156	// e80 <IsfWaitForFlashNotBusy>
     de8:	80000000 	or	r0, r0, r0
     dec:	f8730024 	swi	r3, r19, 36
     df0:	e8730024 	lwi	r3, r19, 36
     df4:	bc03000c 	beqi	r3, 12		// e00
     df8:	30600001 	addik	r3, r0, 1
     dfc:	b800006c 	bri	108		// e68
     e00:	b0000000 	imm	0
     e04:	30a036b0 	addik	r5, r0, 14000	// 36b0 <Isf>
     e08:	b0000000 	imm	0
     e0c:	b9f41a08 	brlid	r15, 6664	// 2814 <XIsf_MicronFlashExit4BAddMode>
     e10:	80000000 	or	r0, r0, r0
     e14:	b0000000 	imm	0
     e18:	b9f40068 	brlid	r15, 104	// e80 <IsfWaitForFlashNotBusy>
     e1c:	80000000 	or	r0, r0, r0
     e20:	f8730024 	swi	r3, r19, 36
     e24:	e8730024 	lwi	r3, r19, 36
     e28:	bc03000c 	beqi	r3, 12		// e34
     e2c:	30600001 	addik	r3, r0, 1
     e30:	b8000038 	bri	56		// e68
     e34:	e8730034 	lwi	r3, r19, 52
     e38:	30830001 	addik	r4, r3, 1
     e3c:	f8930034 	swi	r4, r19, 52
     e40:	e0930028 	lbui	r4, r19, 40
     e44:	f0830000 	sbi	r4, r3, 0
     e48:	e873001c 	lwi	r3, r19, 28
     e4c:	30630001 	addik	r3, r3, 1
     e50:	f873001c 	swi	r3, r19, 28
     e54:	e893001c 	lwi	r4, r19, 28
     e58:	306000ff 	addik	r3, r0, 255
     e5c:	16441801 	cmp	r18, r4, r3
     e60:	bcb2fd2c 	bgei	r18, -724		// b8c
     e64:	30600002 	addik	r3, r0, 2
     e68:	e9e10000 	lwi	r15, r1, 0
     e6c:	10330000 	addk	r1, r19, r0
     e70:	ea61002c 	lwi	r19, r1, 44
     e74:	30210030 	addik	r1, r1, 48
     e78:	b60f0008 	rtsd	r15, 8
     e7c:	80000000 	or	r0, r0, r0

00000e80 <IsfWaitForFlashNotBusy>:
     e80:	3021ffd8 	addik	r1, r1, -40
     e84:	f9e10000 	swi	r15, r1, 0
     e88:	fa610024 	swi	r19, r1, 36
     e8c:	12610000 	addk	r19, r1, r0
     e90:	30600001 	addik	r3, r0, 1
     e94:	b0000000 	imm	0
     e98:	f8603750 	swi	r3, r0, 14160	// 3750 <TransferInProgress>
     e9c:	b0000000 	imm	0
     ea0:	30c038fc 	addik	r6, r0, 14588	// 38fc <ReadBuffer>
     ea4:	b0000000 	imm	0
     ea8:	30a036b0 	addik	r5, r0, 14000	// 36b0 <Isf>
     eac:	b0000000 	imm	0
     eb0:	b9f414bc 	brlid	r15, 5308	// 236c <XIsf_GetStatus>
     eb4:	80000000 	or	r0, r0, r0
     eb8:	f873001c 	swi	r3, r19, 28
     ebc:	e873001c 	lwi	r3, r19, 28
     ec0:	bc03000c 	beqi	r3, 12		// ecc
     ec4:	30600001 	addik	r3, r0, 1
     ec8:	b8000028 	bri	40		// ef0
     ecc:	b0000000 	imm	0
     ed0:	e06038fd 	lbui	r3, r0, 14589
     ed4:	f0730020 	sbi	r3, r19, 32
     ed8:	e0730020 	lbui	r3, r19, 32
     edc:	a4630001 	andi	r3, r3, 1
     ee0:	bc030008 	beqi	r3, 8		// ee8
     ee4:	b800ffac 	bri	-84		// e90
     ee8:	80000000 	or	r0, r0, r0
     eec:	10600000 	addk	r3, r0, r0
     ef0:	e9e10000 	lwi	r15, r1, 0
     ef4:	10330000 	addk	r1, r19, r0
     ef8:	ea610024 	lwi	r19, r1, 36
     efc:	30210028 	addik	r1, r1, 40
     f00:	b60f0008 	rtsd	r15, 8
     f04:	80000000 	or	r0, r0, r0

00000f08 <Xil_Out32>:
     f08:	3021ffec 	addik	r1, r1, -20
     f0c:	fa610010 	swi	r19, r1, 16
     f10:	12610000 	addk	r19, r1, r0
     f14:	f8b30008 	swi	r5, r19, 8
     f18:	f8d3000c 	swi	r6, r19, 12
     f1c:	e8730008 	lwi	r3, r19, 8
     f20:	f8730004 	swi	r3, r19, 4
     f24:	e8730004 	lwi	r3, r19, 4
     f28:	e893000c 	lwi	r4, r19, 12
     f2c:	f8830000 	swi	r4, r3, 0
     f30:	80000000 	or	r0, r0, r0
     f34:	10330000 	addk	r1, r19, r0
     f38:	ea610010 	lwi	r19, r1, 16
     f3c:	30210014 	addik	r1, r1, 20
     f40:	b60f0008 	rtsd	r15, 8
     f44:	80000000 	or	r0, r0, r0

00000f48 <init_stdout>:
     f48:	3021ffe0 	addik	r1, r1, -32
     f4c:	f9e10000 	swi	r15, r1, 0
     f50:	fa61001c 	swi	r19, r1, 28
     f54:	12610000 	addk	r19, r1, r0
     f58:	30e04b00 	addik	r7, r0, 19200
     f5c:	b00005f5 	imm	1525
     f60:	30c0e100 	addik	r6, r0, -7936
     f64:	b00044a0 	imm	17568
     f68:	30a00000 	addik	r5, r0, 0
     f6c:	b0000000 	imm	0
     f70:	b9f411f0 	brlid	r15, 4592	// 2160 <XUartNs550_SetBaud>
     f74:	80000000 	or	r0, r0, r0
     f78:	30c00003 	addik	r6, r0, 3
     f7c:	b00044a0 	imm	17568
     f80:	30a0100c 	addik	r5, r0, 4108
     f84:	b000ffff 	imm	-1
     f88:	b9f4ff80 	brlid	r15, -128	// f08 <Xil_Out32>
     f8c:	80000000 	or	r0, r0, r0
     f90:	80000000 	or	r0, r0, r0
     f94:	e9e10000 	lwi	r15, r1, 0
     f98:	10330000 	addk	r1, r19, r0
     f9c:	ea61001c 	lwi	r19, r1, 28
     fa0:	30210020 	addik	r1, r1, 32
     fa4:	b60f0008 	rtsd	r15, 8
     fa8:	80000000 	or	r0, r0, r0

00000fac <nybble_to_val>:
     fac:	3021fff4 	addik	r1, r1, -12
     fb0:	fa610008 	swi	r19, r1, 8
     fb4:	12610000 	addk	r19, r1, r0
     fb8:	10650000 	addk	r3, r5, r0
     fbc:	f0730004 	sbi	r3, r19, 4
     fc0:	e0730004 	lbui	r3, r19, 4
     fc4:	90830060 	sext8	r4, r3
     fc8:	3060002f 	addik	r3, r0, 47
     fcc:	16441801 	cmp	r18, r4, r3
     fd0:	bcb20028 	bgei	r18, 40		// ff8
     fd4:	e0730004 	lbui	r3, r19, 4
     fd8:	90830060 	sext8	r4, r3
     fdc:	30600039 	addik	r3, r0, 57
     fe0:	16441801 	cmp	r18, r4, r3
     fe4:	bc520014 	blti	r18, 20		// ff8
     fe8:	e0730004 	lbui	r3, r19, 4
     fec:	3063ffd0 	addik	r3, r3, -48
     ff0:	a46300ff 	andi	r3, r3, 255
     ff4:	b8000010 	bri	16		// 1004
     ff8:	e0730004 	lbui	r3, r19, 4
     ffc:	3063ffc9 	addik	r3, r3, -55
    1000:	a46300ff 	andi	r3, r3, 255
    1004:	10330000 	addk	r1, r19, r0
    1008:	ea610008 	lwi	r19, r1, 8
    100c:	3021000c 	addik	r1, r1, 12
    1010:	b60f0008 	rtsd	r15, 8
    1014:	80000000 	or	r0, r0, r0

00001018 <grab_hex_byte>:
    1018:	3021fff4 	addik	r1, r1, -12
    101c:	f9e10000 	swi	r15, r1, 0
    1020:	fa610004 	swi	r19, r1, 4
    1024:	fac10008 	swi	r22, r1, 8
    1028:	12610000 	addk	r19, r1, r0
    102c:	f8b30010 	swi	r5, r19, 16
    1030:	e8730010 	lwi	r3, r19, 16
    1034:	e0630000 	lbui	r3, r3, 0
    1038:	90630060 	sext8	r3, r3
    103c:	10a30000 	addk	r5, r3, r0
    1040:	b000ffff 	imm	-1
    1044:	b9f4ff68 	brlid	r15, -152	// fac <nybble_to_val>
    1048:	80000000 	or	r0, r0, r0
    104c:	64630404 	bslli	r3, r3, 4
    1050:	a6c300ff 	andi	r22, r3, 255
    1054:	e8730010 	lwi	r3, r19, 16
    1058:	30630001 	addik	r3, r3, 1
    105c:	e0630000 	lbui	r3, r3, 0
    1060:	90630060 	sext8	r3, r3
    1064:	10a30000 	addk	r5, r3, r0
    1068:	b000ffff 	imm	-1
    106c:	b9f4ff40 	brlid	r15, -192	// fac <nybble_to_val>
    1070:	80000000 	or	r0, r0, r0
    1074:	10761800 	addk	r3, r22, r3
    1078:	a46300ff 	andi	r3, r3, 255
    107c:	e9e10000 	lwi	r15, r1, 0
    1080:	10330000 	addk	r1, r19, r0
    1084:	ea610004 	lwi	r19, r1, 4
    1088:	eac10008 	lwi	r22, r1, 8
    108c:	3021000c 	addik	r1, r1, 12
    1090:	b60f0008 	rtsd	r15, 8
    1094:	80000000 	or	r0, r0, r0

00001098 <grab_hex_word>:
    1098:	3021ffdc 	addik	r1, r1, -36
    109c:	f9e10000 	swi	r15, r1, 0
    10a0:	fa61001c 	swi	r19, r1, 28
    10a4:	fac10020 	swi	r22, r1, 32
    10a8:	12610000 	addk	r19, r1, r0
    10ac:	f8b30028 	swi	r5, r19, 40
    10b0:	e8b30028 	lwi	r5, r19, 40
    10b4:	b000ffff 	imm	-1
    10b8:	b9f4ff60 	brlid	r15, -160	// 1018 <grab_hex_byte>
    10bc:	80000000 	or	r0, r0, r0
    10c0:	b0000000 	imm	0
    10c4:	a463ffff 	andi	r3, r3, -1
    10c8:	64630408 	bslli	r3, r3, 8
    10cc:	b0000000 	imm	0
    10d0:	a6c3ffff 	andi	r22, r3, -1
    10d4:	e8730028 	lwi	r3, r19, 40
    10d8:	30630002 	addik	r3, r3, 2
    10dc:	10a30000 	addk	r5, r3, r0
    10e0:	b000ffff 	imm	-1
    10e4:	b9f4ff34 	brlid	r15, -204	// 1018 <grab_hex_byte>
    10e8:	80000000 	or	r0, r0, r0
    10ec:	b0000000 	imm	0
    10f0:	a463ffff 	andi	r3, r3, -1
    10f4:	10761800 	addk	r3, r22, r3
    10f8:	b0000000 	imm	0
    10fc:	a463ffff 	andi	r3, r3, -1
    1100:	e9e10000 	lwi	r15, r1, 0
    1104:	10330000 	addk	r1, r19, r0
    1108:	ea61001c 	lwi	r19, r1, 28
    110c:	eac10020 	lwi	r22, r1, 32
    1110:	30210024 	addik	r1, r1, 36
    1114:	b60f0008 	rtsd	r15, 8
    1118:	80000000 	or	r0, r0, r0

0000111c <grab_hex_word24>:
    111c:	3021ffdc 	addik	r1, r1, -36
    1120:	f9e10000 	swi	r15, r1, 0
    1124:	fa61001c 	swi	r19, r1, 28
    1128:	fac10020 	swi	r22, r1, 32
    112c:	12610000 	addk	r19, r1, r0
    1130:	f8b30028 	swi	r5, r19, 40
    1134:	e8b30028 	lwi	r5, r19, 40
    1138:	b000ffff 	imm	-1
    113c:	b9f4fedc 	brlid	r15, -292	// 1018 <grab_hex_byte>
    1140:	80000000 	or	r0, r0, r0
    1144:	66c30410 	bslli	r22, r3, 16
    1148:	e8730028 	lwi	r3, r19, 40
    114c:	30630002 	addik	r3, r3, 2
    1150:	10a30000 	addk	r5, r3, r0
    1154:	b000ffff 	imm	-1
    1158:	b9f4ff40 	brlid	r15, -192	// 1098 <grab_hex_word>
    115c:	80000000 	or	r0, r0, r0
    1160:	10761800 	addk	r3, r22, r3
    1164:	e9e10000 	lwi	r15, r1, 0
    1168:	10330000 	addk	r1, r19, r0
    116c:	ea61001c 	lwi	r19, r1, 28
    1170:	eac10020 	lwi	r22, r1, 32
    1174:	30210024 	addik	r1, r1, 36
    1178:	b60f0008 	rtsd	r15, 8
    117c:	80000000 	or	r0, r0, r0

00001180 <grab_hex_dword>:
    1180:	3021ffdc 	addik	r1, r1, -36
    1184:	f9e10000 	swi	r15, r1, 0
    1188:	fa61001c 	swi	r19, r1, 28
    118c:	fac10020 	swi	r22, r1, 32
    1190:	12610000 	addk	r19, r1, r0
    1194:	f8b30028 	swi	r5, r19, 40
    1198:	e8b30028 	lwi	r5, r19, 40
    119c:	b000ffff 	imm	-1
    11a0:	b9f4fef8 	brlid	r15, -264	// 1098 <grab_hex_word>
    11a4:	80000000 	or	r0, r0, r0
    11a8:	66c30410 	bslli	r22, r3, 16
    11ac:	e8730028 	lwi	r3, r19, 40
    11b0:	30630004 	addik	r3, r3, 4
    11b4:	10a30000 	addk	r5, r3, r0
    11b8:	b000ffff 	imm	-1
    11bc:	b9f4fedc 	brlid	r15, -292	// 1098 <grab_hex_word>
    11c0:	80000000 	or	r0, r0, r0
    11c4:	10761800 	addk	r3, r22, r3
    11c8:	e9e10000 	lwi	r15, r1, 0
    11cc:	10330000 	addk	r1, r19, r0
    11d0:	ea61001c 	lwi	r19, r1, 28
    11d4:	eac10020 	lwi	r22, r1, 32
    11d8:	30210024 	addik	r1, r1, 36
    11dc:	b60f0008 	rtsd	r15, 8
    11e0:	80000000 	or	r0, r0, r0

000011e4 <decode_srec_data>:
    11e4:	3021ffd4 	addik	r1, r1, -44
    11e8:	f9e10000 	swi	r15, r1, 0
    11ec:	fa610028 	swi	r19, r1, 40
    11f0:	12610000 	addk	r19, r1, r0
    11f4:	f8b30030 	swi	r5, r19, 48
    11f8:	f8d30034 	swi	r6, r19, 52
    11fc:	10670000 	addk	r3, r7, r0
    1200:	10880000 	addk	r4, r8, r0
    1204:	f0730038 	sbi	r3, r19, 56
    1208:	10640000 	addk	r3, r4, r0
    120c:	f073003c 	sbi	r3, r19, 60
    1210:	f013001c 	sbi	r0, r19, 28
    1214:	f8130020 	swi	r0, r19, 32
    1218:	b800007c 	bri	124		// 1294
    121c:	e8b30030 	lwi	r5, r19, 48
    1220:	b000ffff 	imm	-1
    1224:	b9f4fdf4 	brlid	r15, -524	// 1018 <grab_hex_byte>
    1228:	80000000 	or	r0, r0, r0
    122c:	f0730024 	sbi	r3, r19, 36
    1230:	e073003c 	lbui	r3, r19, 60
    1234:	3063ffff 	addik	r3, r3, -1
    1238:	e8930020 	lwi	r4, r19, 32
    123c:	16432001 	cmp	r18, r3, r4
    1240:	bc52002c 	blti	r18, 44		// 126c
    1244:	e0730038 	lbui	r3, r19, 56
    1248:	3063ffff 	addik	r3, r3, -1
    124c:	e8930020 	lwi	r4, r19, 32
    1250:	88641800 	xor	r3, r4, r3
    1254:	bc030018 	beqi	r3, 24		// 126c
    1258:	e8730034 	lwi	r3, r19, 52
    125c:	30830001 	addik	r4, r3, 1
    1260:	f8930034 	swi	r4, r19, 52
    1264:	e0930024 	lbui	r4, r19, 36
    1268:	f0830000 	sbi	r4, r3, 0
    126c:	e8730030 	lwi	r3, r19, 48
    1270:	30630002 	addik	r3, r3, 2
    1274:	f8730030 	swi	r3, r19, 48
    1278:	e073001c 	lbui	r3, r19, 28
    127c:	e0930024 	lbui	r4, r19, 36
    1280:	10632000 	addk	r3, r3, r4
    1284:	f073001c 	sbi	r3, r19, 28
    1288:	e8730020 	lwi	r3, r19, 32
    128c:	30630001 	addik	r3, r3, 1
    1290:	f8730020 	swi	r3, r19, 32
    1294:	e0730038 	lbui	r3, r19, 56
    1298:	e8930020 	lwi	r4, r19, 32
    129c:	16432001 	cmp	r18, r3, r4
    12a0:	bc52ff7c 	blti	r18, -132		// 121c
    12a4:	e073001c 	lbui	r3, r19, 28
    12a8:	e9e10000 	lwi	r15, r1, 0
    12ac:	10330000 	addk	r1, r19, r0
    12b0:	ea610028 	lwi	r19, r1, 40
    12b4:	3021002c 	addik	r1, r1, 44
    12b8:	b60f0008 	rtsd	r15, 8
    12bc:	80000000 	or	r0, r0, r0

000012c0 <eatup_srec_line>:
    12c0:	3021ffd8 	addik	r1, r1, -40
    12c4:	f9e10000 	swi	r15, r1, 0
    12c8:	fa610024 	swi	r19, r1, 36
    12cc:	12610000 	addk	r19, r1, r0
    12d0:	f8b3002c 	swi	r5, r19, 44
    12d4:	10660000 	addk	r3, r6, r0
    12d8:	f0730030 	sbi	r3, r19, 48
    12dc:	f0130020 	sbi	r0, r19, 32
    12e0:	f813001c 	swi	r0, r19, 28
    12e4:	b800003c 	bri	60		// 1320
    12e8:	e8b3002c 	lwi	r5, r19, 44
    12ec:	b000ffff 	imm	-1
    12f0:	b9f4fd28 	brlid	r15, -728	// 1018 <grab_hex_byte>
    12f4:	80000000 	or	r0, r0, r0
    12f8:	10830000 	addk	r4, r3, r0
    12fc:	e0730020 	lbui	r3, r19, 32
    1300:	10641800 	addk	r3, r4, r3
    1304:	f0730020 	sbi	r3, r19, 32
    1308:	e873002c 	lwi	r3, r19, 44
    130c:	30630002 	addik	r3, r3, 2
    1310:	f873002c 	swi	r3, r19, 44
    1314:	e873001c 	lwi	r3, r19, 28
    1318:	30630001 	addik	r3, r3, 1
    131c:	f873001c 	swi	r3, r19, 28
    1320:	e0730030 	lbui	r3, r19, 48
    1324:	e893001c 	lwi	r4, r19, 28
    1328:	16432001 	cmp	r18, r3, r4
    132c:	bc52ffbc 	blti	r18, -68		// 12e8
    1330:	e0730020 	lbui	r3, r19, 32
    1334:	e9e10000 	lwi	r15, r1, 0
    1338:	10330000 	addk	r1, r19, r0
    133c:	ea610024 	lwi	r19, r1, 36
    1340:	30210028 	addik	r1, r1, 40
    1344:	b60f0008 	rtsd	r15, 8
    1348:	80000000 	or	r0, r0, r0

0000134c <decode_srec_line>:
    134c:	3021ffd0 	addik	r1, r1, -48
    1350:	f9e10000 	swi	r15, r1, 0
    1354:	fa61002c 	swi	r19, r1, 44
    1358:	12610000 	addk	r19, r1, r0
    135c:	f8b30034 	swi	r5, r19, 52
    1360:	f8d30038 	swi	r6, r19, 56
    1364:	f013001c 	sbi	r0, r19, 28
    1368:	e8730034 	lwi	r3, r19, 52
    136c:	f8730020 	swi	r3, r19, 32
    1370:	b0000000 	imm	0
    1374:	e86038e4 	lwi	r3, r0, 14564	// 38e4 <srec_line>
    1378:	30630001 	addik	r3, r3, 1
    137c:	b0000000 	imm	0
    1380:	f86038e4 	swi	r3, r0, 14564	// 38e4 <srec_line>
    1384:	e8730020 	lwi	r3, r19, 32
    1388:	e0630000 	lbui	r3, r3, 0
    138c:	a8630053 	xori	r3, r3, 83
    1390:	bc03000c 	beqi	r3, 12		// 139c
    1394:	30600003 	addik	r3, r0, 3
    1398:	b80003cc 	bri	972		// 1764
    139c:	e8730020 	lwi	r3, r19, 32
    13a0:	30630001 	addik	r3, r3, 1
    13a4:	f8730020 	swi	r3, r19, 32
    13a8:	e8730020 	lwi	r3, r19, 32
    13ac:	e0630000 	lbui	r3, r3, 0
    13b0:	3063ffd0 	addik	r3, r3, -48
    13b4:	f8730024 	swi	r3, r19, 36
    13b8:	e8730020 	lwi	r3, r19, 32
    13bc:	30630001 	addik	r3, r3, 1
    13c0:	f8730020 	swi	r3, r19, 32
    13c4:	e8b30020 	lwi	r5, r19, 32
    13c8:	b000ffff 	imm	-1
    13cc:	b9f4fc4c 	brlid	r15, -948	// 1018 <grab_hex_byte>
    13d0:	80000000 	or	r0, r0, r0
    13d4:	f0730028 	sbi	r3, r19, 40
    13d8:	e8730020 	lwi	r3, r19, 32
    13dc:	30630002 	addik	r3, r3, 2
    13e0:	f8730020 	swi	r3, r19, 32
    13e4:	e0730028 	lbui	r3, r19, 40
    13e8:	f073001c 	sbi	r3, r19, 28
    13ec:	e8930024 	lwi	r4, r19, 36
    13f0:	30600009 	addik	r3, r0, 9
    13f4:	16441803 	cmpu	r18, r4, r3
    13f8:	bc520344 	blti	r18, 836		// 173c
    13fc:	e8730024 	lwi	r3, r19, 36
    1400:	64630402 	bslli	r3, r3, 2
    1404:	b0000000 	imm	0
    1408:	30633258 	addik	r3, r3, 12888
    140c:	e8630000 	lwi	r3, r3, 0
    1410:	98081800 	bra	r3
    1414:	e8730038 	lwi	r3, r19, 56
    1418:	f0030000 	sbi	r0, r3, 0
    141c:	e8730038 	lwi	r3, r19, 56
    1420:	e0930028 	lbui	r4, r19, 40
    1424:	f083000c 	sbi	r4, r3, 12
    1428:	e0730028 	lbui	r3, r19, 40
    142c:	10c30000 	addk	r6, r3, r0
    1430:	e8b30020 	lwi	r5, r19, 32
    1434:	b000ffff 	imm	-1
    1438:	b9f4fe88 	brlid	r15, -376	// 12c0 <eatup_srec_line>
    143c:	80000000 	or	r0, r0, r0
    1440:	10830000 	addk	r4, r3, r0
    1444:	e073001c 	lbui	r3, r19, 28
    1448:	10641800 	addk	r3, r4, r3
    144c:	f073001c 	sbi	r3, r19, 28
    1450:	b80002f4 	bri	756		// 1744
    1454:	e8730038 	lwi	r3, r19, 56
    1458:	30800001 	addik	r4, r0, 1
    145c:	f0830000 	sbi	r4, r3, 0
    1460:	30600003 	addik	r3, r0, 3
    1464:	f0730029 	sbi	r3, r19, 41
    1468:	e8b30020 	lwi	r5, r19, 32
    146c:	b000ffff 	imm	-1
    1470:	b9f4fc28 	brlid	r15, -984	// 1098 <grab_hex_word>
    1474:	80000000 	or	r0, r0, r0
    1478:	10830000 	addk	r4, r3, r0
    147c:	e8730038 	lwi	r3, r19, 56
    1480:	f8830004 	swi	r4, r3, 4
    1484:	e0930028 	lbui	r4, r19, 40
    1488:	e0730029 	lbui	r3, r19, 41
    148c:	14632000 	rsubk	r3, r3, r4
    1490:	a48300ff 	andi	r4, r3, 255
    1494:	e8730038 	lwi	r3, r19, 56
    1498:	f083000c 	sbi	r4, r3, 12
    149c:	e8730038 	lwi	r3, r19, 56
    14a0:	e8630008 	lwi	r3, r3, 8
    14a4:	e0b30029 	lbui	r5, r19, 41
    14a8:	e0930028 	lbui	r4, r19, 40
    14ac:	11050000 	addk	r8, r5, r0
    14b0:	10e40000 	addk	r7, r4, r0
    14b4:	10c30000 	addk	r6, r3, r0
    14b8:	e8b30020 	lwi	r5, r19, 32
    14bc:	b000ffff 	imm	-1
    14c0:	b9f4fd24 	brlid	r15, -732	// 11e4 <decode_srec_data>
    14c4:	80000000 	or	r0, r0, r0
    14c8:	10830000 	addk	r4, r3, r0
    14cc:	e073001c 	lbui	r3, r19, 28
    14d0:	10641800 	addk	r3, r4, r3
    14d4:	f073001c 	sbi	r3, r19, 28
    14d8:	b800026c 	bri	620		// 1744
    14dc:	e8730038 	lwi	r3, r19, 56
    14e0:	30800002 	addik	r4, r0, 2
    14e4:	f0830000 	sbi	r4, r3, 0
    14e8:	30600004 	addik	r3, r0, 4
    14ec:	f0730029 	sbi	r3, r19, 41
    14f0:	e8b30020 	lwi	r5, r19, 32
    14f4:	b000ffff 	imm	-1
    14f8:	b9f4fc24 	brlid	r15, -988	// 111c <grab_hex_word24>
    14fc:	80000000 	or	r0, r0, r0
    1500:	10830000 	addk	r4, r3, r0
    1504:	e8730038 	lwi	r3, r19, 56
    1508:	f8830004 	swi	r4, r3, 4
    150c:	e0930028 	lbui	r4, r19, 40
    1510:	e0730029 	lbui	r3, r19, 41
    1514:	14632000 	rsubk	r3, r3, r4
    1518:	a48300ff 	andi	r4, r3, 255
    151c:	e8730038 	lwi	r3, r19, 56
    1520:	f083000c 	sbi	r4, r3, 12
    1524:	e8730038 	lwi	r3, r19, 56
    1528:	e8630008 	lwi	r3, r3, 8
    152c:	e0b30029 	lbui	r5, r19, 41
    1530:	e0930028 	lbui	r4, r19, 40
    1534:	11050000 	addk	r8, r5, r0
    1538:	10e40000 	addk	r7, r4, r0
    153c:	10c30000 	addk	r6, r3, r0
    1540:	e8b30020 	lwi	r5, r19, 32
    1544:	b000ffff 	imm	-1
    1548:	b9f4fc9c 	brlid	r15, -868	// 11e4 <decode_srec_data>
    154c:	80000000 	or	r0, r0, r0
    1550:	10830000 	addk	r4, r3, r0
    1554:	e073001c 	lbui	r3, r19, 28
    1558:	10641800 	addk	r3, r4, r3
    155c:	f073001c 	sbi	r3, r19, 28
    1560:	b80001e4 	bri	484		// 1744
    1564:	e8730038 	lwi	r3, r19, 56
    1568:	30800003 	addik	r4, r0, 3
    156c:	f0830000 	sbi	r4, r3, 0
    1570:	30600005 	addik	r3, r0, 5
    1574:	f0730029 	sbi	r3, r19, 41
    1578:	e8b30020 	lwi	r5, r19, 32
    157c:	b000ffff 	imm	-1
    1580:	b9f4fc00 	brlid	r15, -1024	// 1180 <grab_hex_dword>
    1584:	80000000 	or	r0, r0, r0
    1588:	10830000 	addk	r4, r3, r0
    158c:	e8730038 	lwi	r3, r19, 56
    1590:	f8830004 	swi	r4, r3, 4
    1594:	e0930028 	lbui	r4, r19, 40
    1598:	e0730029 	lbui	r3, r19, 41
    159c:	14632000 	rsubk	r3, r3, r4
    15a0:	a48300ff 	andi	r4, r3, 255
    15a4:	e8730038 	lwi	r3, r19, 56
    15a8:	f083000c 	sbi	r4, r3, 12
    15ac:	e8730038 	lwi	r3, r19, 56
    15b0:	e8630008 	lwi	r3, r3, 8
    15b4:	e0b30029 	lbui	r5, r19, 41
    15b8:	e0930028 	lbui	r4, r19, 40
    15bc:	11050000 	addk	r8, r5, r0
    15c0:	10e40000 	addk	r7, r4, r0
    15c4:	10c30000 	addk	r6, r3, r0
    15c8:	e8b30020 	lwi	r5, r19, 32
    15cc:	b000ffff 	imm	-1
    15d0:	b9f4fc14 	brlid	r15, -1004	// 11e4 <decode_srec_data>
    15d4:	80000000 	or	r0, r0, r0
    15d8:	10830000 	addk	r4, r3, r0
    15dc:	e073001c 	lbui	r3, r19, 28
    15e0:	10641800 	addk	r3, r4, r3
    15e4:	f073001c 	sbi	r3, r19, 28
    15e8:	b800015c 	bri	348		// 1744
    15ec:	e8730038 	lwi	r3, r19, 56
    15f0:	30800005 	addik	r4, r0, 5
    15f4:	f0830000 	sbi	r4, r3, 0
    15f8:	e8b30020 	lwi	r5, r19, 32
    15fc:	b000ffff 	imm	-1
    1600:	b9f4fa98 	brlid	r15, -1384	// 1098 <grab_hex_word>
    1604:	80000000 	or	r0, r0, r0
    1608:	10830000 	addk	r4, r3, r0
    160c:	e8730038 	lwi	r3, r19, 56
    1610:	f8830004 	swi	r4, r3, 4
    1614:	e0730028 	lbui	r3, r19, 40
    1618:	10c30000 	addk	r6, r3, r0
    161c:	e8b30020 	lwi	r5, r19, 32
    1620:	b000ffff 	imm	-1
    1624:	b9f4fc9c 	brlid	r15, -868	// 12c0 <eatup_srec_line>
    1628:	80000000 	or	r0, r0, r0
    162c:	10830000 	addk	r4, r3, r0
    1630:	e073001c 	lbui	r3, r19, 28
    1634:	10641800 	addk	r3, r4, r3
    1638:	f073001c 	sbi	r3, r19, 28
    163c:	b8000108 	bri	264		// 1744
    1640:	e8730038 	lwi	r3, r19, 56
    1644:	30800007 	addik	r4, r0, 7
    1648:	f0830000 	sbi	r4, r3, 0
    164c:	e8b30020 	lwi	r5, r19, 32
    1650:	b000ffff 	imm	-1
    1654:	b9f4fb2c 	brlid	r15, -1236	// 1180 <grab_hex_dword>
    1658:	80000000 	or	r0, r0, r0
    165c:	10830000 	addk	r4, r3, r0
    1660:	e8730038 	lwi	r3, r19, 56
    1664:	f8830004 	swi	r4, r3, 4
    1668:	e0730028 	lbui	r3, r19, 40
    166c:	10c30000 	addk	r6, r3, r0
    1670:	e8b30020 	lwi	r5, r19, 32
    1674:	b000ffff 	imm	-1
    1678:	b9f4fc48 	brlid	r15, -952	// 12c0 <eatup_srec_line>
    167c:	80000000 	or	r0, r0, r0
    1680:	10830000 	addk	r4, r3, r0
    1684:	e073001c 	lbui	r3, r19, 28
    1688:	10641800 	addk	r3, r4, r3
    168c:	f073001c 	sbi	r3, r19, 28
    1690:	b80000b4 	bri	180		// 1744
    1694:	e8730038 	lwi	r3, r19, 56
    1698:	30800008 	addik	r4, r0, 8	// 8 <_vector_sw_exception>
    169c:	f0830000 	sbi	r4, r3, 0
    16a0:	e8b30020 	lwi	r5, r19, 32
    16a4:	b000ffff 	imm	-1
    16a8:	b9f4fa74 	brlid	r15, -1420	// 111c <grab_hex_word24>
    16ac:	80000000 	or	r0, r0, r0
    16b0:	10830000 	addk	r4, r3, r0
    16b4:	e8730038 	lwi	r3, r19, 56
    16b8:	f8830004 	swi	r4, r3, 4
    16bc:	e0730028 	lbui	r3, r19, 40
    16c0:	10c30000 	addk	r6, r3, r0
    16c4:	e8b30020 	lwi	r5, r19, 32
    16c8:	b000ffff 	imm	-1
    16cc:	b9f4fbf4 	brlid	r15, -1036	// 12c0 <eatup_srec_line>
    16d0:	80000000 	or	r0, r0, r0
    16d4:	10830000 	addk	r4, r3, r0
    16d8:	e073001c 	lbui	r3, r19, 28
    16dc:	10641800 	addk	r3, r4, r3
    16e0:	f073001c 	sbi	r3, r19, 28
    16e4:	b8000060 	bri	96		// 1744
    16e8:	e8730038 	lwi	r3, r19, 56
    16ec:	30800009 	addik	r4, r0, 9
    16f0:	f0830000 	sbi	r4, r3, 0
    16f4:	e8b30020 	lwi	r5, r19, 32
    16f8:	b000ffff 	imm	-1
    16fc:	b9f4f99c 	brlid	r15, -1636	// 1098 <grab_hex_word>
    1700:	80000000 	or	r0, r0, r0
    1704:	10830000 	addk	r4, r3, r0
    1708:	e8730038 	lwi	r3, r19, 56
    170c:	f8830004 	swi	r4, r3, 4
    1710:	e0730028 	lbui	r3, r19, 40
    1714:	10c30000 	addk	r6, r3, r0
    1718:	e8b30020 	lwi	r5, r19, 32
    171c:	b000ffff 	imm	-1
    1720:	b9f4fba0 	brlid	r15, -1120	// 12c0 <eatup_srec_line>
    1724:	80000000 	or	r0, r0, r0
    1728:	10830000 	addk	r4, r3, r0
    172c:	e073001c 	lbui	r3, r19, 28
    1730:	10641800 	addk	r3, r4, r3
    1734:	f073001c 	sbi	r3, r19, 28
    1738:	b800000c 	bri	12		// 1744
    173c:	30600003 	addik	r3, r0, 3
    1740:	b8000024 	bri	36		// 1764
    1744:	e073001c 	lbui	r3, r19, 28
    1748:	30630001 	addik	r3, r3, 1
    174c:	f073001c 	sbi	r3, r19, 28
    1750:	e073001c 	lbui	r3, r19, 28
    1754:	bc03000c 	beqi	r3, 12		// 1760
    1758:	30600004 	addik	r3, r0, 4
    175c:	b8000008 	bri	8		// 1764
    1760:	10600000 	addk	r3, r0, r0
    1764:	e9e10000 	lwi	r15, r1, 0
    1768:	10330000 	addk	r1, r19, r0
    176c:	ea61002c 	lwi	r19, r1, 44
    1770:	30210030 	addik	r1, r1, 48
    1774:	b60f0008 	rtsd	r15, 8
    1778:	80000000 	or	r0, r0, r0

0000177c <StubStatusHandler>:
    177c:	b0000000 	imm	0
    1780:	30a031f4 	addik	r5, r0, 12788
    1784:	3021ffe4 	addik	r1, r1, -28
    1788:	f9e10000 	swi	r15, r1, 0
    178c:	b0000000 	imm	0
    1790:	b9f40940 	brlid	r15, 2368	// 20d0 <Xil_Assert>
    1794:	30c00417 	addik	r6, r0, 1047
    1798:	e9e10000 	lwi	r15, r1, 0
    179c:	30600001 	addik	r3, r0, 1
    17a0:	b0000000 	imm	0
    17a4:	f8603a04 	swi	r3, r0, 14852	// 3a04 <Xil_AssertStatus>
    17a8:	b60f0008 	rtsd	r15, 8
    17ac:	3021001c 	addik	r1, r1, 28

000017b0 <XSpi_Start>:
    17b0:	3021ffe0 	addik	r1, r1, -32
    17b4:	fa61001c 	swi	r19, r1, 28
    17b8:	f9e10000 	swi	r15, r1, 0
    17bc:	be0500a8 	beqid	r5, 168		// 1864
    17c0:	12650000 	addk	r19, r5, r0
    17c4:	e865001c 	lwi	r3, r5, 28
    17c8:	b0000000 	imm	0
    17cc:	f8003a04 	swi	r0, r0, 14852	// 3a04 <Xil_AssertStatus>
    17d0:	b0001111 	imm	4369
    17d4:	a8631111 	xori	r3, r3, 4369
    17d8:	bc230058 	bnei	r3, 88		// 1830
    17dc:	e8850020 	lwi	r4, r5, 32
    17e0:	b0002222 	imm	8738
    17e4:	a8842222 	xori	r4, r4, 8738
    17e8:	bc0400a4 	beqi	r4, 164		// 188c
    17ec:	e8850018 	lwi	r4, r5, 24
    17f0:	b0002222 	imm	8738
    17f4:	30c02222 	addik	r6, r0, 8738
    17f8:	e8a40028 	lwi	r5, r4, 40
    17fc:	a0a5202b 	ori	r5, r5, 8235
    1800:	f8a40028 	swi	r5, r4, 40
    1804:	e8a40060 	lwi	r5, r4, 96
    1808:	f8d30020 	swi	r6, r19, 32
    180c:	a0a50062 	ori	r5, r5, 98
    1810:	f8a40060 	swi	r5, r4, 96
    1814:	b0008000 	imm	-32768
    1818:	30a00000 	addik	r5, r0, 0
    181c:	f8a4001c 	swi	r5, r4, 28
    1820:	e9e10000 	lwi	r15, r1, 0
    1824:	ea61001c 	lwi	r19, r1, 28
    1828:	b60f0008 	rtsd	r15, 8
    182c:	30210020 	addik	r1, r1, 32
    1830:	b0000000 	imm	0
    1834:	30a031f4 	addik	r5, r0, 12788
    1838:	b0000000 	imm	0
    183c:	b9f40894 	brlid	r15, 2196	// 20d0 <Xil_Assert>
    1840:	30c00136 	addik	r6, r0, 310
    1844:	e9e10000 	lwi	r15, r1, 0
    1848:	ea61001c 	lwi	r19, r1, 28
    184c:	30a00001 	addik	r5, r0, 1
    1850:	10600000 	addk	r3, r0, r0
    1854:	b0000000 	imm	0
    1858:	f8a03a04 	swi	r5, r0, 14852	// 3a04 <Xil_AssertStatus>
    185c:	b60f0008 	rtsd	r15, 8
    1860:	30210020 	addik	r1, r1, 32
    1864:	b0000000 	imm	0
    1868:	30a031f4 	addik	r5, r0, 12788
    186c:	b0000000 	imm	0
    1870:	b9f40860 	brlid	r15, 2144	// 20d0 <Xil_Assert>
    1874:	30c00135 	addik	r6, r0, 309
    1878:	30600001 	addik	r3, r0, 1
    187c:	b0000000 	imm	0
    1880:	f8603a04 	swi	r3, r0, 14852	// 3a04 <Xil_AssertStatus>
    1884:	b810ff9c 	brid	-100		// 1820
    1888:	10730000 	addk	r3, r19, r0
    188c:	b810ff94 	brid	-108		// 1820
    1890:	30600005 	addik	r3, r0, 5

00001894 <XSpi_Reset>:
    1894:	3021ffe4 	addik	r1, r1, -28
    1898:	be0500a8 	beqid	r5, 168		// 1940
    189c:	f9e10000 	swi	r15, r1, 0
    18a0:	e865001c 	lwi	r3, r5, 28
    18a4:	b0000000 	imm	0
    18a8:	f8003a04 	swi	r0, r0, 14852	// 3a04 <Xil_AssertStatus>
    18ac:	b0001111 	imm	4369
    18b0:	a8631111 	xori	r3, r3, 4369
    18b4:	bc230060 	bnei	r3, 96		// 1914
    18b8:	e8850018 	lwi	r4, r5, 24
    18bc:	e8650030 	lwi	r3, r5, 48
    18c0:	e8c50024 	lwi	r6, r5, 36
    18c4:	f8640070 	swi	r3, r4, 112
    18c8:	e8640060 	lwi	r3, r4, 96
    18cc:	b0000000 	imm	0
    18d0:	a463ffff 	andi	r3, r3, -1
    18d4:	bc260038 	bnei	r6, 56		// 190c
    18d8:	a0630100 	ori	r3, r3, 256
    18dc:	f8640060 	swi	r3, r4, 96
    18e0:	e8650030 	lwi	r3, r5, 48
    18e4:	f8050044 	swi	r0, r5, 68
    18e8:	f8050040 	swi	r0, r5, 64
    18ec:	f8650034 	swi	r3, r5, 52
    18f0:	f8050048 	swi	r0, r5, 72
    18f4:	f8050020 	swi	r0, r5, 32
    18f8:	3060000a 	addik	r3, r0, 10
    18fc:	f8640040 	swi	r3, r4, 64
    1900:	e9e10000 	lwi	r15, r1, 0
    1904:	b60f0008 	rtsd	r15, 8
    1908:	3021001c 	addik	r1, r1, 28
    190c:	a0630160 	ori	r3, r3, 352
    1910:	b800ffcc 	bri	-52		// 18dc
    1914:	b0000000 	imm	0
    1918:	30a031f4 	addik	r5, r0, 12788
    191c:	b0000000 	imm	0
    1920:	b9f407b0 	brlid	r15, 1968	// 20d0 <Xil_Assert>
    1924:	30c001b4 	addik	r6, r0, 436
    1928:	e9e10000 	lwi	r15, r1, 0
    192c:	30600001 	addik	r3, r0, 1
    1930:	b0000000 	imm	0
    1934:	f8603a04 	swi	r3, r0, 14852	// 3a04 <Xil_AssertStatus>
    1938:	b60f0008 	rtsd	r15, 8
    193c:	3021001c 	addik	r1, r1, 28
    1940:	b0000000 	imm	0
    1944:	30a031f4 	addik	r5, r0, 12788
    1948:	b0000000 	imm	0
    194c:	b9f40784 	brlid	r15, 1924	// 20d0 <Xil_Assert>
    1950:	30c001b3 	addik	r6, r0, 435
    1954:	30600001 	addik	r3, r0, 1
    1958:	b0000000 	imm	0
    195c:	f8603a04 	swi	r3, r0, 14852	// 3a04 <Xil_AssertStatus>
    1960:	b810ffa4 	brid	-92		// 1904
    1964:	e9e10000 	lwi	r15, r1, 0

00001968 <XSpi_CfgInitialize>:
    1968:	3021ffe0 	addik	r1, r1, -32
    196c:	fa61001c 	swi	r19, r1, 28
    1970:	f9e10000 	swi	r15, r1, 0
    1974:	be050160 	beqid	r5, 352		// 1ad4
    1978:	12650000 	addk	r19, r5, r0
    197c:	e8650020 	lwi	r3, r5, 32
    1980:	b0000000 	imm	0
    1984:	f8003a04 	swi	r0, r0, 14852	// 3a04 <Xil_AssertStatus>
    1988:	b0002222 	imm	8738
    198c:	a8632222 	xori	r3, r3, 8738
    1990:	be030134 	beqid	r3, 308		// 1ac4
    1994:	30600005 	addik	r3, r0, 5
    1998:	e8860008 	lwi	r4, r6, 8
    199c:	b0000000 	imm	0
    19a0:	3060177c 	addik	r3, r0, 6012	// 177c <StubStatusHandler>
    19a4:	f8850024 	swi	r4, r5, 36
    19a8:	e886000c 	lwi	r4, r6, 12
    19ac:	f865004c 	swi	r3, r5, 76
    19b0:	f8050020 	swi	r0, r5, 32
    19b4:	f8850028 	swi	r4, r5, 40
    19b8:	f8050048 	swi	r0, r5, 72
    19bc:	f8050038 	swi	r0, r5, 56
    19c0:	f805003c 	swi	r0, r5, 60
    19c4:	f8050040 	swi	r0, r5, 64
    19c8:	f8050044 	swi	r0, r5, 68
    19cc:	f8e50018 	swi	r7, r5, 24
    19d0:	e0860010 	lbui	r4, r6, 16
    19d4:	f085002c 	sbi	r4, r5, 44
    19d8:	e0660011 	lbui	r3, r6, 17
    19dc:	bc030084 	beqi	r3, 132		// 1a60
    19e0:	f065002d 	sbi	r3, r5, 45
    19e4:	e0660012 	lbui	r3, r6, 18
    19e8:	f073002e 	sbi	r3, r19, 46
    19ec:	e8660014 	lwi	r3, r6, 20
    19f0:	f8730054 	swi	r3, r19, 84
    19f4:	30600001 	addik	r3, r0, 1
    19f8:	44632400 	bsll	r3, r3, r4
    19fc:	e0860018 	lbui	r4, r6, 24
    1a00:	3063ffff 	addik	r3, r3, -1
    1a04:	f8730030 	swi	r3, r19, 48
    1a08:	f0930058 	sbi	r4, r19, 88
    1a0c:	b0001111 	imm	4369
    1a10:	30801111 	addik	r4, r0, 4369
    1a14:	f8730034 	swi	r3, r19, 52
    1a18:	f8130000 	swi	r0, r19, 0
    1a1c:	f893001c 	swi	r4, r19, 28
    1a20:	f8130004 	swi	r0, r19, 4
    1a24:	f8130008 	swi	r0, r19, 8
    1a28:	f813000c 	swi	r0, r19, 12
    1a2c:	f8130010 	swi	r0, r19, 16
    1a30:	f8130014 	swi	r0, r19, 20
    1a34:	e0660019 	lbui	r3, r6, 25
    1a38:	a8630001 	xori	r3, r3, 1
    1a3c:	bc030030 	beqi	r3, 48		// 1a6c
    1a40:	b000ffff 	imm	-1
    1a44:	b9f4fe50 	brlid	r15, -432	// 1894 <XSpi_Reset>
    1a48:	10b30000 	addk	r5, r19, r0
    1a4c:	10600000 	addk	r3, r0, r0
    1a50:	e9e10000 	lwi	r15, r1, 0
    1a54:	ea61001c 	lwi	r19, r1, 28
    1a58:	b60f0008 	rtsd	r15, 8
    1a5c:	30210020 	addik	r1, r1, 32
    1a60:	30600008 	addik	r3, r0, 8	// 8 <_vector_sw_exception>
    1a64:	b810ff80 	brid	-128		// 19e4
    1a68:	f065002d 	sbi	r3, r5, 45
    1a6c:	e8870060 	lwi	r4, r7, 96
    1a70:	a0840066 	ori	r4, r4, 102
    1a74:	f8870060 	swi	r4, r7, 96
    1a78:	3080009f 	addik	r4, r0, 159
    1a7c:	f8870068 	swi	r4, r7, 104
    1a80:	f8670068 	swi	r3, r7, 104
    1a84:	f8670068 	swi	r3, r7, 104
    1a88:	e8670060 	lwi	r3, r7, 96
    1a8c:	a463feff 	andi	r3, r3, -257
    1a90:	f8670060 	swi	r3, r7, 96
    1a94:	e8670060 	lwi	r3, r7, 96
    1a98:	a0630100 	ori	r3, r3, 256
    1a9c:	f8670060 	swi	r3, r7, 96
    1aa0:	e8670064 	lwi	r3, r7, 100
    1aa4:	a4630001 	andi	r3, r3, 1
    1aa8:	bc230008 	bnei	r3, 8		// 1ab0
    1aac:	e867006c 	lwi	r3, r7, 108
    1ab0:	e8670064 	lwi	r3, r7, 100
    1ab4:	a4630001 	andi	r3, r3, 1
    1ab8:	bc23ff88 	bnei	r3, -120		// 1a40
    1abc:	e867006c 	lwi	r3, r7, 108
    1ac0:	b800ff80 	bri	-128		// 1a40
    1ac4:	e9e10000 	lwi	r15, r1, 0
    1ac8:	ea61001c 	lwi	r19, r1, 28
    1acc:	b60f0008 	rtsd	r15, 8
    1ad0:	30210020 	addik	r1, r1, 32
    1ad4:	b0000000 	imm	0
    1ad8:	30a031f4 	addik	r5, r0, 12788
    1adc:	b0000000 	imm	0
    1ae0:	b9f405f0 	brlid	r15, 1520	// 20d0 <Xil_Assert>
    1ae4:	30c000a9 	addik	r6, r0, 169
    1ae8:	30600001 	addik	r3, r0, 1
    1aec:	b0000000 	imm	0
    1af0:	f8603a04 	swi	r3, r0, 14852	// 3a04 <Xil_AssertStatus>
    1af4:	b810ff5c 	brid	-164		// 1a50
    1af8:	10730000 	addk	r3, r19, r0

00001afc <XSpi_Transfer>:
    1afc:	3021ffc0 	addik	r1, r1, -64
    1b00:	fa610020 	swi	r19, r1, 32
    1b04:	f9e10000 	swi	r15, r1, 0
    1b08:	fac10024 	swi	r22, r1, 36
    1b0c:	fae10028 	swi	r23, r1, 40
    1b10:	fb01002c 	swi	r24, r1, 44
    1b14:	fb210030 	swi	r25, r1, 48
    1b18:	fb410034 	swi	r26, r1, 52
    1b1c:	fb610038 	swi	r27, r1, 56
    1b20:	fb81003c 	swi	r28, r1, 60
    1b24:	be05034c 	beqid	r5, 844		// 1e70
    1b28:	12650000 	addk	r19, r5, r0
    1b2c:	b0000000 	imm	0
    1b30:	f8003a04 	swi	r0, r0, 14852	// 3a04 <Xil_AssertStatus>
    1b34:	be060364 	beqid	r6, 868		// 1e98
    1b38:	12e60000 	addk	r23, r6, r0
    1b3c:	bc080304 	beqi	r8, 772		// 1e40
    1b40:	e865001c 	lwi	r3, r5, 28
    1b44:	b0001111 	imm	4369
    1b48:	a8631111 	xori	r3, r3, 4369
    1b4c:	bc2301b8 	bnei	r3, 440		// 1d04
    1b50:	e8650020 	lwi	r3, r5, 32
    1b54:	b0002222 	imm	8738
    1b58:	a8632222 	xori	r3, r3, 8738
    1b5c:	be2301cc 	bneid	r3, 460		// 1d28
    1b60:	30600006 	addik	r3, r0, 6
    1b64:	e8650048 	lwi	r3, r5, 72
    1b68:	bc230358 	bnei	r3, 856		// 1ec0
    1b6c:	e9250018 	lwi	r9, r5, 24
    1b70:	eb49001c 	lwi	r26, r9, 28
    1b74:	f869001c 	swi	r3, r9, 28
    1b78:	e8890060 	lwi	r4, r9, 96
    1b7c:	3369001c 	addik	r27, r9, 28
    1b80:	a4a40004 	andi	r5, r4, 4
    1b84:	be050020 	beqid	r5, 32		// 1ba4
    1b88:	33090060 	addik	r24, r9, 96
    1b8c:	a4840001 	andi	r4, r4, 1
    1b90:	bc240014 	bnei	r4, 20		// 1ba4
    1b94:	e8930034 	lwi	r4, r19, 52
    1b98:	e8b30030 	lwi	r5, r19, 48
    1b9c:	88842800 	xor	r4, r4, r5
    1ba0:	bc040328 	beqi	r4, 808		// 1ec8
    1ba4:	e8c90064 	lwi	r6, r9, 100
    1ba8:	30800001 	addik	r4, r0, 1
    1bac:	f8f3003c 	swi	r7, r19, 60
    1bb0:	f8930048 	swi	r4, r19, 72
    1bb4:	faf30038 	swi	r23, r19, 56
    1bb8:	f9130040 	swi	r8, r19, 64
    1bbc:	f9130044 	swi	r8, r19, 68
    1bc0:	a4c60008 	andi	r6, r6, 8
    1bc4:	e2d3002d 	lbui	r22, r19, 45
    1bc8:	be260314 	bneid	r6, 788		// 1edc
    1bcc:	30e90064 	addik	r7, r9, 100
    1bd0:	10880000 	addk	r4, r8, r0
    1bd4:	65560003 	bsrli	r10, r22, 3
    1bd8:	31890068 	addik	r12, r9, 104
    1bdc:	a9760008 	xori	r11, r22, 8
    1be0:	ab360010 	xori	r25, r22, 16
    1be4:	ab960020 	xori	r28, r22, 32
    1be8:	bc0b016c 	beqi	r11, 364		// 1d54
    1bec:	bc190170 	beqi	r25, 368		// 1d5c
    1bf0:	bc3c0008 	bnei	r28, 8		// 1bf8
    1bf4:	e8d70000 	lwi	r6, r23, 0
    1bf8:	f8cc0000 	swi	r6, r12, 0
    1bfc:	e8a70000 	lwi	r5, r7, 0
    1c00:	148a2000 	rsubk	r4, r10, r4
    1c04:	12f75000 	addk	r23, r23, r10
    1c08:	faf30038 	swi	r23, r19, 56
    1c0c:	a4a50008 	andi	r5, r5, 8
    1c10:	be25000c 	bneid	r5, 12		// 1c1c
    1c14:	f8930044 	swi	r4, r19, 68
    1c18:	bc24ffd0 	bnei	r4, -48		// 1be8
    1c1c:	e8930034 	lwi	r4, r19, 52
    1c20:	b0008000 	imm	-32768
    1c24:	335a0000 	addik	r26, r26, 0
    1c28:	f8890070 	swi	r4, r9, 112
    1c2c:	e8980000 	lwi	r4, r24, 0
    1c30:	a484feff 	andi	r4, r4, -257
    1c34:	f8980000 	swi	r4, r24, 0
    1c38:	be1a012c 	beqid	r26, 300		// 1d64
    1c3c:	64b60003 	bsrli	r5, r22, 3
    1c40:	a9760008 	xori	r11, r22, 8
    1c44:	a9960010 	xori	r12, r22, 16
    1c48:	31490020 	addik	r10, r9, 32
    1c4c:	aad60020 	xori	r22, r22, 32
    1c50:	e88a0000 	lwi	r4, r10, 0
    1c54:	a4840004 	andi	r4, r4, 4
    1c58:	bc04fff8 	beqi	r4, -8		// 1c50
    1c5c:	e88a0000 	lwi	r4, r10, 0
    1c60:	a0840004 	ori	r4, r4, 4
    1c64:	f88a0000 	swi	r4, r10, 0
    1c68:	e8980000 	lwi	r4, r24, 0
    1c6c:	a0840100 	ori	r4, r4, 256
    1c70:	f8980000 	swi	r4, r24, 0
    1c74:	e8870000 	lwi	r4, r7, 0
    1c78:	a4840001 	andi	r4, r4, 1
    1c7c:	bc040030 	beqi	r4, 48		// 1cac
    1c80:	b8100134 	brid	308		// 1db4
    1c84:	e8930044 	lwi	r4, r19, 68
    1c88:	bc0c00fc 	beqi	r12, 252		// 1d84
    1c8c:	bc160110 	beqi	r22, 272		// 1d9c
    1c90:	e8930010 	lwi	r4, r19, 16
    1c94:	15054000 	rsubk	r8, r5, r8
    1c98:	10842800 	addk	r4, r4, r5
    1c9c:	f8930010 	swi	r4, r19, 16
    1ca0:	e8870000 	lwi	r4, r7, 0
    1ca4:	a4840001 	andi	r4, r4, 1
    1ca8:	bc240044 	bnei	r4, 68		// 1cec
    1cac:	e8c9006c 	lwi	r6, r9, 108
    1cb0:	bc2bffd8 	bnei	r11, -40		// 1c88
    1cb4:	e893003c 	lwi	r4, r19, 60
    1cb8:	be04ffd8 	beqid	r4, -40		// 1c90
    1cbc:	31440001 	addik	r10, r4, 1
    1cc0:	f953003c 	swi	r10, r19, 60
    1cc4:	f0c40000 	sbi	r6, r4, 0
    1cc8:	e8930010 	lwi	r4, r19, 16
    1ccc:	e9330018 	lwi	r9, r19, 24
    1cd0:	15054000 	rsubk	r8, r5, r8
    1cd4:	10842800 	addk	r4, r4, r5
    1cd8:	30e90064 	addik	r7, r9, 100
    1cdc:	f8930010 	swi	r4, r19, 16
    1ce0:	e8870000 	lwi	r4, r7, 0
    1ce4:	a4840001 	andi	r4, r4, 1
    1ce8:	bc04ffc4 	beqi	r4, -60		// 1cac
    1cec:	e8930044 	lwi	r4, r19, 68
    1cf0:	be2400c8 	bneid	r4, 200		// 1db8
    1cf4:	33090060 	addik	r24, r9, 96
    1cf8:	be08011c 	beqid	r8, 284		// 1e14
    1cfc:	31490020 	addik	r10, r9, 32
    1d00:	b800ff50 	bri	-176		// 1c50
    1d04:	b0000000 	imm	0
    1d08:	30a031f4 	addik	r5, r0, 12788
    1d0c:	b0000000 	imm	0
    1d10:	b9f403c0 	brlid	r15, 960	// 20d0 <Xil_Assert>
    1d14:	30c00229 	addik	r6, r0, 553
    1d18:	30800001 	addik	r4, r0, 1
    1d1c:	b0000000 	imm	0
    1d20:	f8803a04 	swi	r4, r0, 14852	// 3a04 <Xil_AssertStatus>
    1d24:	10600000 	addk	r3, r0, r0
    1d28:	e9e10000 	lwi	r15, r1, 0
    1d2c:	ea610020 	lwi	r19, r1, 32
    1d30:	eac10024 	lwi	r22, r1, 36
    1d34:	eae10028 	lwi	r23, r1, 40
    1d38:	eb01002c 	lwi	r24, r1, 44
    1d3c:	eb210030 	lwi	r25, r1, 48
    1d40:	eb410034 	lwi	r26, r1, 52
    1d44:	eb610038 	lwi	r27, r1, 56
    1d48:	eb81003c 	lwi	r28, r1, 60
    1d4c:	b60f0008 	rtsd	r15, 8
    1d50:	30210040 	addik	r1, r1, 64
    1d54:	b810fea4 	brid	-348		// 1bf8
    1d58:	e0d70000 	lbui	r6, r23, 0
    1d5c:	b810fe9c 	brid	-356		// 1bf8
    1d60:	e4d70000 	lhui	r6, r23, 0
    1d64:	e8890028 	lwi	r4, r9, 40
    1d68:	a0840004 	ori	r4, r4, 4
    1d6c:	f8890028 	swi	r4, r9, 40
    1d70:	b0008000 	imm	-32768
    1d74:	30800000 	addik	r4, r0, 0
    1d78:	f89b0000 	swi	r4, r27, 0
    1d7c:	b810ffb0 	brid	-80		// 1d2c
    1d80:	e9e10000 	lwi	r15, r1, 0
    1d84:	e893003c 	lwi	r4, r19, 60
    1d88:	be04ff08 	beqid	r4, -248		// 1c90
    1d8c:	31440002 	addik	r10, r4, 2
    1d90:	f4c40000 	shi	r6, r4, 0
    1d94:	b810fefc 	brid	-260		// 1c90
    1d98:	f953003c 	swi	r10, r19, 60
    1d9c:	e893003c 	lwi	r4, r19, 60
    1da0:	be04fef0 	beqid	r4, -272		// 1c90
    1da4:	31440004 	addik	r10, r4, 4
    1da8:	f8c40000 	swi	r6, r4, 0
    1dac:	b810fee4 	brid	-284		// 1c90
    1db0:	f953003c 	swi	r10, r19, 60
    1db4:	bc04fe9c 	beqi	r4, -356		// 1c50
    1db8:	e9470000 	lwi	r10, r7, 0
    1dbc:	a54a0008 	andi	r10, r10, 8
    1dc0:	bc2a0040 	bnei	r10, 64		// 1e00
    1dc4:	eaf30038 	lwi	r23, r19, 56
    1dc8:	33290068 	addik	r25, r9, 104
    1dcc:	bc0b0064 	beqi	r11, 100		// 1e30
    1dd0:	bc0c0068 	beqi	r12, 104		// 1e38
    1dd4:	bc360008 	bnei	r22, 8		// 1ddc
    1dd8:	e8d70000 	lwi	r6, r23, 0
    1ddc:	f8d90000 	swi	r6, r25, 0
    1de0:	e9470000 	lwi	r10, r7, 0
    1de4:	14852000 	rsubk	r4, r5, r4
    1de8:	12f72800 	addk	r23, r23, r5
    1dec:	faf30038 	swi	r23, r19, 56
    1df0:	a54a0008 	andi	r10, r10, 8
    1df4:	be2a000c 	bneid	r10, 12		// 1e00
    1df8:	f8930044 	swi	r4, r19, 68
    1dfc:	bc24ffd0 	bnei	r4, -48		// 1dcc
    1e00:	e8980000 	lwi	r4, r24, 0
    1e04:	a484feff 	andi	r4, r4, -257
    1e08:	f8980000 	swi	r4, r24, 0
    1e0c:	be28fe44 	bneid	r8, -444		// 1c50
    1e10:	31490020 	addik	r10, r9, 32
    1e14:	e8980000 	lwi	r4, r24, 0
    1e18:	a0840100 	ori	r4, r4, 256
    1e1c:	f8980000 	swi	r4, r24, 0
    1e20:	e8930030 	lwi	r4, r19, 48
    1e24:	f8890070 	swi	r4, r9, 112
    1e28:	b810ff00 	brid	-256		// 1d28
    1e2c:	f9130048 	swi	r8, r19, 72
    1e30:	b810ffac 	brid	-84		// 1ddc
    1e34:	e0d70000 	lbui	r6, r23, 0
    1e38:	b810ffa4 	brid	-92		// 1ddc
    1e3c:	e4d70000 	lhui	r6, r23, 0
    1e40:	b0000000 	imm	0
    1e44:	30a031f4 	addik	r5, r0, 12788
    1e48:	30c00228 	addik	r6, r0, 552
    1e4c:	b0000000 	imm	0
    1e50:	b9f40280 	brlid	r15, 640	// 20d0 <Xil_Assert>
    1e54:	f901001c 	swi	r8, r1, 28
    1e58:	e901001c 	lwi	r8, r1, 28
    1e5c:	30600001 	addik	r3, r0, 1
    1e60:	b0000000 	imm	0
    1e64:	f8603a04 	swi	r3, r0, 14852	// 3a04 <Xil_AssertStatus>
    1e68:	b810fec0 	brid	-320		// 1d28
    1e6c:	10680000 	addk	r3, r8, r0
    1e70:	b0000000 	imm	0
    1e74:	30a031f4 	addik	r5, r0, 12788
    1e78:	b0000000 	imm	0
    1e7c:	b9f40254 	brlid	r15, 596	// 20d0 <Xil_Assert>
    1e80:	30c00226 	addik	r6, r0, 550
    1e84:	30600001 	addik	r3, r0, 1
    1e88:	b0000000 	imm	0
    1e8c:	f8603a04 	swi	r3, r0, 14852	// 3a04 <Xil_AssertStatus>
    1e90:	b810fe98 	brid	-360		// 1d28
    1e94:	10730000 	addk	r3, r19, r0
    1e98:	b0000000 	imm	0
    1e9c:	30a031f4 	addik	r5, r0, 12788
    1ea0:	b0000000 	imm	0
    1ea4:	b9f4022c 	brlid	r15, 556	// 20d0 <Xil_Assert>
    1ea8:	30c00227 	addik	r6, r0, 551
    1eac:	30800001 	addik	r4, r0, 1
    1eb0:	b0000000 	imm	0
    1eb4:	f8803a04 	swi	r4, r0, 14852	// 3a04 <Xil_AssertStatus>
    1eb8:	b810fe70 	brid	-400		// 1d28
    1ebc:	10770000 	addk	r3, r23, r0
    1ec0:	b810fe68 	brid	-408		// 1d28
    1ec4:	30600015 	addik	r3, r0, 21
    1ec8:	b0008000 	imm	-32768
    1ecc:	335a0000 	addik	r26, r26, 0
    1ed0:	be3afe58 	bneid	r26, -424		// 1d28
    1ed4:	30600483 	addik	r3, r0, 1155
    1ed8:	b800fe98 	bri	-360		// 1d70
    1edc:	b810fd40 	brid	-704		// 1c1c
    1ee0:	10c00000 	addk	r6, r0, r0

00001ee4 <XSpi_SetSlaveSelect>:
    1ee4:	3021ffe0 	addik	r1, r1, -32
    1ee8:	fa61001c 	swi	r19, r1, 28
    1eec:	f9e10000 	swi	r15, r1, 0
    1ef0:	be0500d8 	beqid	r5, 216		// 1fc8
    1ef4:	12650000 	addk	r19, r5, r0
    1ef8:	e865001c 	lwi	r3, r5, 28
    1efc:	b0000000 	imm	0
    1f00:	f8003a04 	swi	r0, r0, 14852	// 3a04 <Xil_AssertStatus>
    1f04:	b0001111 	imm	4369
    1f08:	a8631111 	xori	r3, r3, 4369
    1f0c:	bc230064 	bnei	r3, 100		// 1f70
    1f10:	e8650048 	lwi	r3, r5, 72
    1f14:	bc230090 	bnei	r3, 144		// 1fa4
    1f18:	e085002c 	lbui	r4, r5, 44
    1f1c:	be04003c 	beqid	r4, 60		// 1f58
    1f20:	30a4ffff 	addik	r5, r4, -1
    1f24:	10e30000 	addk	r7, r3, r0
    1f28:	11230000 	addk	r9, r3, r0
    1f2c:	44862800 	bsrl	r4, r6, r5
    1f30:	30a5ffff 	addik	r5, r5, -1
    1f34:	a4840001 	andi	r4, r4, 1
    1f38:	8c844c00 	pcmpne	r4, r4, r9
    1f3c:	a905ffff 	xori	r8, r5, -1
    1f40:	be28ffec 	bneid	r8, -20		// 1f2c
    1f44:	10e72000 	addk	r7, r7, r4
    1f48:	30800001 	addik	r4, r0, 1
    1f4c:	16472001 	cmp	r18, r7, r4
    1f50:	be520068 	bltid	r18, 104		// 1fb8
    1f54:	e9e10000 	lwi	r15, r1, 0
    1f58:	a8c6ffff 	xori	r6, r6, -1
    1f5c:	f8d30034 	swi	r6, r19, 52
    1f60:	e9e10000 	lwi	r15, r1, 0
    1f64:	ea61001c 	lwi	r19, r1, 28
    1f68:	b60f0008 	rtsd	r15, 8
    1f6c:	30210020 	addik	r1, r1, 32
    1f70:	b0000000 	imm	0
    1f74:	30a031f4 	addik	r5, r0, 12788
    1f78:	b0000000 	imm	0
    1f7c:	b9f40154 	brlid	r15, 340	// 20d0 <Xil_Assert>
    1f80:	30c0037d 	addik	r6, r0, 893
    1f84:	e9e10000 	lwi	r15, r1, 0
    1f88:	ea61001c 	lwi	r19, r1, 28
    1f8c:	30600001 	addik	r3, r0, 1
    1f90:	b0000000 	imm	0
    1f94:	f8603a04 	swi	r3, r0, 14852	// 3a04 <Xil_AssertStatus>
    1f98:	10600000 	addk	r3, r0, r0
    1f9c:	b60f0008 	rtsd	r15, 8
    1fa0:	30210020 	addik	r1, r1, 32
    1fa4:	e9e10000 	lwi	r15, r1, 0
    1fa8:	ea61001c 	lwi	r19, r1, 28
    1fac:	30600015 	addik	r3, r0, 21
    1fb0:	b60f0008 	rtsd	r15, 8
    1fb4:	30210020 	addik	r1, r1, 32
    1fb8:	ea61001c 	lwi	r19, r1, 28
    1fbc:	30600484 	addik	r3, r0, 1156
    1fc0:	b60f0008 	rtsd	r15, 8
    1fc4:	30210020 	addik	r1, r1, 32
    1fc8:	b0000000 	imm	0
    1fcc:	30a031f4 	addik	r5, r0, 12788
    1fd0:	b0000000 	imm	0
    1fd4:	b9f400fc 	brlid	r15, 252	// 20d0 <Xil_Assert>
    1fd8:	30c0037c 	addik	r6, r0, 892
    1fdc:	30600001 	addik	r3, r0, 1
    1fe0:	b0000000 	imm	0
    1fe4:	f8603a04 	swi	r3, r0, 14852	// 3a04 <Xil_AssertStatus>
    1fe8:	b810ff78 	brid	-136		// 1f60
    1fec:	10730000 	addk	r3, r19, r0

00001ff0 <XSpi_Initialize>:
    1ff0:	3021ffe0 	addik	r1, r1, -32
    1ff4:	f9e10000 	swi	r15, r1, 0
    1ff8:	be050058 	beqid	r5, 88		// 2050
    1ffc:	fa61001c 	swi	r19, r1, 28
    2000:	b0000000 	imm	0
    2004:	30803670 	addik	r4, r0, 13936	// 3670 <XSpi_ConfigTable>
    2008:	b0000000 	imm	0
    200c:	f8003a04 	swi	r0, r0, 14852	// 3a04 <Xil_AssertStatus>
    2010:	e4640000 	lhui	r3, r4, 0
    2014:	88633000 	xor	r3, r3, r6
    2018:	be030018 	beqid	r3, 24		// 2030
    201c:	e9e10000 	lwi	r15, r1, 0
    2020:	ea61001c 	lwi	r19, r1, 28
    2024:	30600002 	addik	r3, r0, 2
    2028:	b60f0008 	rtsd	r15, 8
    202c:	30210020 	addik	r1, r1, 32
    2030:	e8e40004 	lwi	r7, r4, 4
    2034:	b000ffff 	imm	-1
    2038:	b9f4f930 	brlid	r15, -1744	// 1968 <XSpi_CfgInitialize>
    203c:	10c40000 	addk	r6, r4, r0
    2040:	e9e10000 	lwi	r15, r1, 0
    2044:	ea61001c 	lwi	r19, r1, 28
    2048:	b60f0008 	rtsd	r15, 8
    204c:	30210020 	addik	r1, r1, 32
    2050:	12650000 	addk	r19, r5, r0
    2054:	b0000000 	imm	0
    2058:	30a031fc 	addik	r5, r0, 12796
    205c:	b0000000 	imm	0
    2060:	b9f40070 	brlid	r15, 112	// 20d0 <Xil_Assert>
    2064:	30c00086 	addik	r6, r0, 134
    2068:	30600001 	addik	r3, r0, 1
    206c:	b0000000 	imm	0
    2070:	f8603a04 	swi	r3, r0, 14852	// 3a04 <Xil_AssertStatus>
    2074:	e9e10000 	lwi	r15, r1, 0
    2078:	10730000 	addk	r3, r19, r0
    207c:	ea61001c 	lwi	r19, r1, 28
    2080:	b60f0008 	rtsd	r15, 8
    2084:	30210020 	addik	r1, r1, 32

00002088 <print>:
    2088:	3021fff8 	addik	r1, r1, -8
    208c:	fa610004 	swi	r19, r1, 4
    2090:	f9e10000 	swi	r15, r1, 0
    2094:	12650000 	addk	r19, r5, r0
    2098:	e0a50000 	lbui	r5, r5, 0
    209c:	90a50060 	sext8	r5, r5
    20a0:	be050024 	beqid	r5, 36		// 20c4
    20a4:	e9e10000 	lwi	r15, r1, 0
    20a8:	b0000000 	imm	0
    20ac:	b9f4006c 	brlid	r15, 108	// 2118 <outbyte>
    20b0:	32730001 	addik	r19, r19, 1
    20b4:	e0b30000 	lbui	r5, r19, 0
    20b8:	90a50060 	sext8	r5, r5
    20bc:	be25ffec 	bneid	r5, -20		// 20a8
    20c0:	e9e10000 	lwi	r15, r1, 0
    20c4:	ea610004 	lwi	r19, r1, 4
    20c8:	b60f0008 	rtsd	r15, 8
    20cc:	30210008 	addik	r1, r1, 8

000020d0 <Xil_Assert>:
    20d0:	b0000000 	imm	0
    20d4:	e86038e8 	lwi	r3, r0, 14568	// 38e8 <Xil_AssertCallbackRoutine>
    20d8:	bc03002c 	beqi	r3, 44		// 2104
    20dc:	3021ffe4 	addik	r1, r1, -28
    20e0:	f9e10000 	swi	r15, r1, 0
    20e4:	99fc1800 	brald	r15, r3
    20e8:	80000000 	or	r0, r0, r0
    20ec:	b0000000 	imm	0
    20f0:	e860368c 	lwi	r3, r0, 13964	// 368c <Xil_AssertWait>
    20f4:	be230000 	bneid	r3, 0		// 20f4
    20f8:	e9e10000 	lwi	r15, r1, 0
    20fc:	b60f0008 	rtsd	r15, 8
    2100:	3021001c 	addik	r1, r1, 28
    2104:	b0000000 	imm	0
    2108:	e860368c 	lwi	r3, r0, 13964	// 368c <Xil_AssertWait>
    210c:	bc230000 	bnei	r3, 0		// 210c
    2110:	b60f0008 	rtsd	r15, 8
    2114:	80000000 	or	r0, r0, r0

00002118 <outbyte>:
    2118:	a4c500ff 	andi	r6, r5, 255
    211c:	b0004140 	imm	16704
    2120:	30a00000 	addik	r5, r0, 0
    2124:	3021fffc 	addik	r1, r1, -4
    2128:	f9e10000 	swi	r15, r1, 0
    212c:	b0000000 	imm	0
    2130:	b9f40014 	brlid	r15, 20	// 2144 <XUartLite_SendByte>
    2134:	80000000 	or	r0, r0, r0
    2138:	e9e10000 	lwi	r15, r1, 0
    213c:	b60f0008 	rtsd	r15, 8
    2140:	30210004 	addik	r1, r1, 4

00002144 <XUartLite_SendByte>:
    2144:	30850008 	addik	r4, r5, 8
    2148:	e8640000 	lwi	r3, r4, 0
    214c:	a4630008 	andi	r3, r3, 8
    2150:	bc23fff8 	bnei	r3, -8		// 2148
    2154:	f8c50004 	swi	r6, r5, 4
    2158:	b60f0008 	rtsd	r15, 8
    215c:	80000000 	or	r0, r0, r0

00002160 <XUartNs550_SetBaud>:
    2160:	64e70404 	bslli	r7, r7, 4
    2164:	90670041 	srl	r3, r7
    2168:	10c33000 	addk	r6, r3, r6
    216c:	48c73002 	idivu	r6, r7, r6
    2170:	e865100c 	lwi	r3, r5, 4108
    2174:	a0830080 	ori	r4, r3, 128
    2178:	f885100c 	swi	r4, r5, 4108
    217c:	308000ff 	addik	r4, r0, 255
    2180:	f8851000 	swi	r4, r5, 4096
    2184:	64864208 	bsefi	r4, r6, 8, 8
    2188:	a4c600ff 	andi	r6, r6, 255
    218c:	f8851004 	swi	r4, r5, 4100
    2190:	f8c51000 	swi	r6, r5, 4096
    2194:	f865100c 	swi	r3, r5, 4108
    2198:	b60f0008 	rtsd	r15, 8
    219c:	80000000 	or	r0, r0, r0

000021a0 <XIsf_SetSpiConfiguration>:
    21a0:	3021ffd8 	addik	r1, r1, -40
    21a4:	fa61001c 	swi	r19, r1, 28
    21a8:	12650000 	addk	r19, r5, r0
    21ac:	fae10024 	swi	r23, r1, 36
    21b0:	f9e10000 	swi	r15, r1, 0
    21b4:	fac10020 	swi	r22, r1, 32
    21b8:	e0730022 	lbui	r3, r19, 34
    21bc:	10a60000 	addk	r5, r6, r0
    21c0:	12e80000 	addk	r23, r8, r0
    21c4:	be030050 	beqid	r3, 80		// 2214
    21c8:	10c70000 	addk	r6, r7, r0
    21cc:	e8730028 	lwi	r3, r19, 40
    21d0:	99fc1800 	brald	r15, r3
    21d4:	e8b30014 	lwi	r5, r19, 20
    21d8:	be230088 	bneid	r3, 136		// 2260
    21dc:	12c30000 	addk	r22, r3, r0
    21e0:	e873003c 	lwi	r3, r19, 60
    21e4:	be030014 	beqid	r3, 20		// 21f8
    21e8:	10d70000 	addk	r6, r23, r0
    21ec:	99fc1800 	brald	r15, r3
    21f0:	e8b30014 	lwi	r5, r19, 20
    21f4:	8ec3b400 	pcmpne	r22, r3, r22
    21f8:	10760000 	addk	r3, r22, r0
    21fc:	e9e10000 	lwi	r15, r1, 0
    2200:	ea61001c 	lwi	r19, r1, 28
    2204:	eac10020 	lwi	r22, r1, 32
    2208:	eae10024 	lwi	r23, r1, 36
    220c:	b60f0008 	rtsd	r15, 8
    2210:	30210028 	addik	r1, r1, 40
    2214:	b0000000 	imm	0
    2218:	30601ee4 	addik	r3, r0, 7908	// 1ee4 <XSpi_SetSlaveSelect>
    221c:	b0000000 	imm	0
    2220:	30802ef8 	addik	r4, r0, 12024	// 2ef8 <XSpi_SetOptions>
    2224:	f8b30014 	swi	r5, r19, 20
    2228:	f873002c 	swi	r3, r19, 44
    222c:	b0000000 	imm	0
    2230:	30601afc 	addik	r3, r0, 6908	// 1afc <XSpi_Transfer>
    2234:	f8930028 	swi	r4, r19, 40
    2238:	f8730034 	swi	r3, r19, 52
    223c:	b0000000 	imm	0
    2240:	306017b0 	addik	r3, r0, 6064	// 17b0 <XSpi_Start>
    2244:	f8730030 	swi	r3, r19, 48
    2248:	10640000 	addk	r3, r4, r0
    224c:	30800001 	addik	r4, r0, 1
    2250:	99fc1800 	brald	r15, r3
    2254:	f0930022 	sbi	r4, r19, 34
    2258:	be03ff88 	beqid	r3, -120		// 21e0
    225c:	12c30000 	addk	r22, r3, r0
    2260:	32c00001 	addik	r22, r0, 1
    2264:	10760000 	addk	r3, r22, r0
    2268:	e9e10000 	lwi	r15, r1, 0
    226c:	ea61001c 	lwi	r19, r1, 28
    2270:	eac10020 	lwi	r22, r1, 32
    2274:	eae10024 	lwi	r23, r1, 36
    2278:	b60f0008 	rtsd	r15, 8
    227c:	30210028 	addik	r1, r1, 40

00002280 <XIsf_Transfer>:
    2280:	3021ffd4 	addik	r1, r1, -44
    2284:	fa61001c 	swi	r19, r1, 28
    2288:	fac10020 	swi	r22, r1, 32
    228c:	fae10024 	swi	r23, r1, 36
    2290:	fb010028 	swi	r24, r1, 40
    2294:	f9e10000 	swi	r15, r1, 0
    2298:	12650000 	addk	r19, r5, r0
    229c:	12c60000 	addk	r22, r6, r0
    22a0:	e865002c 	lwi	r3, r5, 44
    22a4:	e0c50018 	lbui	r6, r5, 24
    22a8:	e8a50014 	lwi	r5, r5, 20
    22ac:	12e70000 	addk	r23, r7, r0
    22b0:	99fc1800 	brald	r15, r3
    22b4:	13080000 	addk	r24, r8, r0
    22b8:	be230068 	bneid	r3, 104		// 2320
    22bc:	30600001 	addik	r3, r0, 1
    22c0:	e0730023 	lbui	r3, r19, 35
    22c4:	a8630001 	xori	r3, r3, 1
    22c8:	be030074 	beqid	r3, 116		// 233c
    22cc:	11180000 	addk	r8, r24, r0
    22d0:	e8730034 	lwi	r3, r19, 52
    22d4:	10f70000 	addk	r7, r23, r0
    22d8:	10d60000 	addk	r6, r22, r0
    22dc:	99fc1800 	brald	r15, r3
    22e0:	e8b30014 	lwi	r5, r19, 20
    22e4:	bc230038 	bnei	r3, 56		// 231c
    22e8:	e0930023 	lbui	r4, r19, 35
    22ec:	a8840001 	xori	r4, r4, 1
    22f0:	be240034 	bneid	r4, 52		// 2324
    22f4:	e9e10000 	lwi	r15, r1, 0
    22f8:	b0000000 	imm	0
    22fc:	e8803a08 	lwi	r4, r0, 14856	// 3a08 <XIsf_TransferInProgress>
    2300:	be040024 	beqid	r4, 36		// 2324
    2304:	e9e10000 	lwi	r15, r1, 0
    2308:	b0000000 	imm	0
    230c:	e8803a08 	lwi	r4, r0, 14856	// 3a08 <XIsf_TransferInProgress>
    2310:	be24ffe8 	bneid	r4, -24		// 22f8
    2314:	ea61001c 	lwi	r19, r1, 28
    2318:	b8000010 	bri	16		// 2328
    231c:	30600001 	addik	r3, r0, 1
    2320:	e9e10000 	lwi	r15, r1, 0
    2324:	ea61001c 	lwi	r19, r1, 28
    2328:	eac10020 	lwi	r22, r1, 32
    232c:	eae10024 	lwi	r23, r1, 36
    2330:	eb010028 	lwi	r24, r1, 40
    2334:	b60f0008 	rtsd	r15, 8
    2338:	3021002c 	addik	r1, r1, 44
    233c:	30600001 	addik	r3, r0, 1
    2340:	b0000000 	imm	0
    2344:	f8603a08 	swi	r3, r0, 14856	// 3a08 <XIsf_TransferInProgress>
    2348:	11180000 	addk	r8, r24, r0
    234c:	e8730034 	lwi	r3, r19, 52
    2350:	10f70000 	addk	r7, r23, r0
    2354:	10d60000 	addk	r6, r22, r0
    2358:	99fc1800 	brald	r15, r3
    235c:	e8b30014 	lwi	r5, r19, 20
    2360:	bc03ff88 	beqi	r3, -120		// 22e8
    2364:	b810ffbc 	brid	-68		// 2320
    2368:	30600001 	addik	r3, r0, 1

0000236c <XIsf_GetStatus>:
    236c:	bc0500b8 	beqi	r5, 184		// 2424
    2370:	3021ffdc 	addik	r1, r1, -36
    2374:	fa610020 	swi	r19, r1, 32
    2378:	f9e10000 	swi	r15, r1, 0
    237c:	e0650000 	lbui	r3, r5, 0
    2380:	30e00001 	addik	r7, r0, 1
    2384:	8c633c00 	pcmpne	r3, r3, r7
    2388:	be230064 	bneid	r3, 100		// 23ec
    238c:	12650000 	addk	r19, r5, r0
    2390:	88661c00 	pcmpeq	r3, r6, r3
    2394:	be230058 	bneid	r3, 88		// 23ec
    2398:	30800005 	addik	r4, r0, 5
    239c:	e865001c 	lwi	r3, r5, 28
    23a0:	10e60000 	addk	r7, r6, r0
    23a4:	f0830000 	sbi	r4, r3, 0
    23a8:	e865001c 	lwi	r3, r5, 28
    23ac:	3080ffff 	addik	r4, r0, -1
    23b0:	31000002 	addik	r8, r0, 2
    23b4:	f0830001 	sbi	r4, r3, 1
    23b8:	b000ffff 	imm	-1
    23bc:	b9f4fec4 	brlid	r15, -316	// 2280 <XIsf_Transfer>
    23c0:	e8c5001c 	lwi	r6, r5, 28
    23c4:	e0930023 	lbui	r4, r19, 35
    23c8:	a8840001 	xori	r4, r4, 1
    23cc:	be040034 	beqid	r4, 52		// 2400
    23d0:	10b30000 	addk	r5, r19, r0
    23d4:	e9e10000 	lwi	r15, r1, 0
    23d8:	ea610020 	lwi	r19, r1, 32
    23dc:	10800000 	addk	r4, r0, r0
    23e0:	8c632400 	pcmpne	r3, r3, r4
    23e4:	b60f0008 	rtsd	r15, 8
    23e8:	30210024 	addik	r1, r1, 36
    23ec:	e9e10000 	lwi	r15, r1, 0
    23f0:	ea610020 	lwi	r19, r1, 32
    23f4:	30600001 	addik	r3, r0, 1
    23f8:	b60f0008 	rtsd	r15, 8
    23fc:	30210024 	addik	r1, r1, 36
    2400:	e8930040 	lwi	r4, r19, 64
    2404:	b0000000 	imm	0
    2408:	e8e03a10 	lwi	r7, r0, 14864	// 3a10 <XIsf_ByteCountInfo>
    240c:	b0000000 	imm	0
    2410:	e8c03a0c 	lwi	r6, r0, 14860	// 3a0c <XIsf_StatusEventInfo>
    2414:	99fc2000 	brald	r15, r4
    2418:	f861001c 	swi	r3, r1, 28
    241c:	b810ffb8 	brid	-72		// 23d4
    2420:	e861001c 	lwi	r3, r1, 28
    2424:	b60f0008 	rtsd	r15, 8
    2428:	30600001 	addik	r3, r0, 1

0000242c <XIsf_GetDeviceInfo.part.4>:
    242c:	3021ffdc 	addik	r1, r1, -36
    2430:	fa610020 	swi	r19, r1, 32
    2434:	f9e10000 	swi	r15, r1, 0
    2438:	e885001c 	lwi	r4, r5, 28
    243c:	10e60000 	addk	r7, r6, r0
    2440:	30c0ff9f 	addik	r6, r0, -97
    2444:	f0c40000 	sbi	r6, r4, 0
    2448:	e885001c 	lwi	r4, r5, 28
    244c:	3060ffff 	addik	r3, r0, -1
    2450:	12650000 	addk	r19, r5, r0
    2454:	f0640001 	sbi	r3, r4, 1
    2458:	e885001c 	lwi	r4, r5, 28
    245c:	31000005 	addik	r8, r0, 5
    2460:	f0640002 	sbi	r3, r4, 2
    2464:	e885001c 	lwi	r4, r5, 28
    2468:	f0640003 	sbi	r3, r4, 3
    246c:	e885001c 	lwi	r4, r5, 28
    2470:	f0640004 	sbi	r3, r4, 4
    2474:	b000ffff 	imm	-1
    2478:	b9f4fe08 	brlid	r15, -504	// 2280 <XIsf_Transfer>
    247c:	e8c5001c 	lwi	r6, r5, 28
    2480:	e0930023 	lbui	r4, r19, 35
    2484:	a8840001 	xori	r4, r4, 1
    2488:	be240030 	bneid	r4, 48		// 24b8
    248c:	e9e10000 	lwi	r15, r1, 0
    2490:	e8930040 	lwi	r4, r19, 64
    2494:	b0000000 	imm	0
    2498:	e8e03a10 	lwi	r7, r0, 14864	// 3a10 <XIsf_ByteCountInfo>
    249c:	b0000000 	imm	0
    24a0:	e8c03a0c 	lwi	r6, r0, 14860	// 3a0c <XIsf_StatusEventInfo>
    24a4:	10b30000 	addk	r5, r19, r0
    24a8:	99fc2000 	brald	r15, r4
    24ac:	f861001c 	swi	r3, r1, 28
    24b0:	e861001c 	lwi	r3, r1, 28
    24b4:	e9e10000 	lwi	r15, r1, 0
    24b8:	ea610020 	lwi	r19, r1, 32
    24bc:	10800000 	addk	r4, r0, r0
    24c0:	8c632400 	pcmpne	r3, r3, r4
    24c4:	b60f0008 	rtsd	r15, 8
    24c8:	30210024 	addik	r1, r1, 36

000024cc <XIsf_Initialize>:
    24cc:	10800000 	addk	r4, r0, r0
    24d0:	3021ffd8 	addik	r1, r1, -40
    24d4:	88662400 	pcmpeq	r3, r6, r4
    24d8:	88882400 	pcmpeq	r4, r8, r4
    24dc:	f9e10000 	swi	r15, r1, 0
    24e0:	fa610024 	swi	r19, r1, 36
    24e4:	f801001c 	swi	r0, r1, 28
    24e8:	80632000 	or	r3, r3, r4
    24ec:	be23007c 	bneid	r3, 124		// 2568
    24f0:	f4010020 	shi	r0, r1, 32
    24f4:	88651c00 	pcmpeq	r3, r5, r3
    24f8:	be230070 	bneid	r3, 112		// 2568
    24fc:	12650000 	addk	r19, r5, r0
    2500:	f0650000 	sbi	r3, r5, 0
    2504:	e8660020 	lwi	r3, r6, 32
    2508:	f8e50018 	swi	r7, r5, 24
    250c:	b0002222 	imm	8738
    2510:	a8632222 	xori	r3, r3, 8738
    2514:	be230068 	bneid	r3, 104		// 257c
    2518:	f905001c 	swi	r8, r5, 28
    251c:	e1050022 	lbui	r8, r5, 34
    2520:	bc08011c 	beqi	r8, 284		// 263c
    2524:	10b30000 	addk	r5, r19, r0
    2528:	30600001 	addik	r3, r0, 1
    252c:	f0130023 	sbi	r0, r19, 35
    2530:	f0730000 	sbi	r3, r19, 0
    2534:	b000ffff 	imm	-1
    2538:	b9f4fef4 	brlid	r15, -268	// 242c <XIsf_GetDeviceInfo.part.4>
    253c:	30c1001c 	addik	r6, r1, 28
    2540:	be230028 	bneid	r3, 40		// 2568
    2544:	f0130000 	sbi	r0, r19, 0
    2548:	e873002c 	lwi	r3, r19, 44
    254c:	e0d30018 	lbui	r6, r19, 24
    2550:	99fc1800 	brald	r15, r3
    2554:	e8b30014 	lwi	r5, r19, 20
    2558:	a8830015 	xori	r4, r3, 21
    255c:	bc04ffec 	beqi	r4, -20		// 2548
    2560:	be030030 	beqid	r3, 48		// 2590
    2564:	e101001e 	lbui	r8, r1, 30
    2568:	e9e10000 	lwi	r15, r1, 0
    256c:	ea610024 	lwi	r19, r1, 36
    2570:	30600001 	addik	r3, r0, 1
    2574:	b60f0008 	rtsd	r15, 8
    2578:	30210028 	addik	r1, r1, 40
    257c:	e9e10000 	lwi	r15, r1, 0
    2580:	ea610024 	lwi	r19, r1, 36
    2584:	30600006 	addik	r3, r0, 6
    2588:	b60f0008 	rtsd	r15, 8
    258c:	30210028 	addik	r1, r1, 40
    2590:	e081001f 	lbui	r4, r1, 31
    2594:	e121001d 	lbui	r9, r1, 29
    2598:	65080408 	bslli	r8, r8, 8
    259c:	81082000 	or	r8, r8, r4
    25a0:	f513000c 	shi	r8, r19, 12
    25a4:	30a00042 	addik	r5, r0, 66
    25a8:	30800011 	addik	r4, r0, 17
    25ac:	b8100020 	brid	32		// 25cc
    25b0:	31400001 	addik	r10, r0, 1
    25b4:	30630001 	addik	r3, r3, 1
    25b8:	be050068 	beqid	r5, 104		// 2620
    25bc:	6083000a 	muli	r4, r3, 10
    25c0:	b0000000 	imm	0
    25c4:	30843280 	addik	r4, r4, 12928
    25c8:	e4840002 	lhui	r4, r4, 2
    25cc:	88882000 	xor	r4, r8, r4
    25d0:	be24ffe4 	bneid	r4, -28		// 25b4
    25d4:	30a5ffff 	addik	r5, r5, -1
    25d8:	6083000a 	muli	r4, r3, 10
    25dc:	b0000000 	imm	0
    25e0:	30843280 	addik	r4, r4, 12928
    25e4:	e0e40000 	lbui	r7, r4, 0
    25e8:	88c93800 	xor	r6, r9, r7
    25ec:	bc26ffc8 	bnei	r6, -56		// 25b4
    25f0:	e5640004 	lhui	r11, r4, 4
    25f4:	30630001 	addik	r3, r3, 1
    25f8:	f8f30010 	swi	r7, r19, 16
    25fc:	f5730002 	shi	r11, r19, 2
    2600:	e5640006 	lhui	r11, r4, 6
    2604:	e4840008 	lhui	r4, r4, 8
    2608:	f4d30006 	shi	r6, r19, 6
    260c:	f5730004 	shi	r11, r19, 4
    2610:	f4930008 	shi	r4, r19, 8
    2614:	f1530000 	sbi	r10, r19, 0
    2618:	be25ffa8 	bneid	r5, -88		// 25c0
    261c:	6083000a 	muli	r4, r3, 10
    2620:	e0730000 	lbui	r3, r19, 0
    2624:	e9e10000 	lwi	r15, r1, 0
    2628:	ea610024 	lwi	r19, r1, 36
    262c:	30800001 	addik	r4, r0, 1
    2630:	8c632400 	pcmpne	r3, r3, r4
    2634:	b60f0008 	rtsd	r15, 8
    2638:	30210028 	addik	r1, r1, 40
    263c:	b000ffff 	imm	-1
    2640:	b9f4fb60 	brlid	r15, -1184	// 21a0 <XIsf_SetSpiConfiguration>
    2644:	30e00017 	addik	r7, r0, 23
    2648:	b810fee0 	brid	-288		// 2528
    264c:	10b30000 	addk	r5, r19, r0

00002650 <XIsf_WriteEnable>:
    2650:	bc0500a4 	beqi	r5, 164		// 26f4
    2654:	e0850000 	lbui	r4, r5, 0
    2658:	30600001 	addik	r3, r0, 1
    265c:	88841800 	xor	r4, r4, r3
    2660:	bc24008c 	bnei	r4, 140		// 26ec
    2664:	3021ffd8 	addik	r1, r1, -40
    2668:	f9e10000 	swi	r15, r1, 0
    266c:	88861800 	xor	r4, r6, r3
    2670:	be04008c 	beqid	r4, 140		// 26fc
    2674:	fa610024 	swi	r19, r1, 36
    2678:	be260068 	bneid	r6, 104		// 26e0
    267c:	e9e10000 	lwi	r15, r1, 0
    2680:	30600004 	addik	r3, r0, 4
    2684:	f061001c 	sbi	r3, r1, 28
    2688:	12650000 	addk	r19, r5, r0
    268c:	10e00000 	addk	r7, r0, r0
    2690:	31000001 	addik	r8, r0, 1
    2694:	b0000000 	imm	0
    2698:	f8e03a04 	swi	r7, r0, 14852	// 3a04 <Xil_AssertStatus>
    269c:	b000ffff 	imm	-1
    26a0:	b9f4fbe0 	brlid	r15, -1056	// 2280 <XIsf_Transfer>
    26a4:	30c1001c 	addik	r6, r1, 28
    26a8:	e0930023 	lbui	r4, r19, 35
    26ac:	a8840001 	xori	r4, r4, 1
    26b0:	be240030 	bneid	r4, 48		// 26e0
    26b4:	e9e10000 	lwi	r15, r1, 0
    26b8:	e8930040 	lwi	r4, r19, 64
    26bc:	b0000000 	imm	0
    26c0:	e8e03a10 	lwi	r7, r0, 14864	// 3a10 <XIsf_ByteCountInfo>
    26c4:	b0000000 	imm	0
    26c8:	e8c03a0c 	lwi	r6, r0, 14860	// 3a0c <XIsf_StatusEventInfo>
    26cc:	10b30000 	addk	r5, r19, r0
    26d0:	99fc2000 	brald	r15, r4
    26d4:	f8610020 	swi	r3, r1, 32
    26d8:	e8610020 	lwi	r3, r1, 32
    26dc:	e9e10000 	lwi	r15, r1, 0
    26e0:	ea610024 	lwi	r19, r1, 36
    26e4:	b60f0008 	rtsd	r15, 8
    26e8:	30210028 	addik	r1, r1, 40
    26ec:	b60f0008 	rtsd	r15, 8
    26f0:	80000000 	or	r0, r0, r0
    26f4:	b60f0008 	rtsd	r15, 8
    26f8:	30600001 	addik	r3, r0, 1
    26fc:	30600006 	addik	r3, r0, 6
    2700:	b810ff88 	brid	-120		// 2688
    2704:	f061001c 	sbi	r3, r1, 28

00002708 <XIsf_MicronFlashEnter4BAddMode>:
    2708:	be0500d4 	beqid	r5, 212		// 27dc
    270c:	30600001 	addik	r3, r0, 1
    2710:	e0650000 	lbui	r3, r5, 0
    2714:	a8630001 	xori	r3, r3, 1
    2718:	be2300c4 	bneid	r3, 196		// 27dc
    271c:	30600001 	addik	r3, r0, 1
    2720:	e0650024 	lbui	r3, r5, 36
    2724:	a8630001 	xori	r3, r3, 1
    2728:	bc0300b4 	beqi	r3, 180		// 27dc
    272c:	3021ffdc 	addik	r1, r1, -36
    2730:	fa610020 	swi	r19, r1, 32
    2734:	f9e10000 	swi	r15, r1, 0
    2738:	12650000 	addk	r19, r5, r0
    273c:	e8a50010 	lwi	r5, r5, 16
    2740:	30600020 	addik	r3, r0, 32	// 20 <_vector_hw_exception>
    2744:	308000c2 	addik	r4, r0, 194
    2748:	88651c00 	pcmpeq	r3, r5, r3
    274c:	88852400 	pcmpeq	r4, r5, r4
    2750:	80832000 	or	r4, r3, r4
    2754:	3060009d 	addik	r3, r0, 157
    2758:	88651c00 	pcmpeq	r3, r5, r3
    275c:	80632000 	or	r3, r3, r4
    2760:	be230014 	bneid	r3, 20		// 2774
    2764:	3060002c 	addik	r3, r0, 44
    2768:	88a51c00 	pcmpeq	r5, r5, r3
    276c:	be050048 	beqid	r5, 72		// 27b4
    2770:	30600001 	addik	r3, r0, 1
    2774:	e873001c 	lwi	r3, r19, 28
    2778:	3080ffb7 	addik	r4, r0, -73
    277c:	10b30000 	addk	r5, r19, r0
    2780:	f0830000 	sbi	r4, r3, 0
    2784:	e8d3001c 	lwi	r6, r19, 28
    2788:	31000001 	addik	r8, r0, 1
    278c:	b000ffff 	imm	-1
    2790:	b9f4faf0 	brlid	r15, -1296	// 2280 <XIsf_Transfer>
    2794:	10e00000 	addk	r7, r0, r0
    2798:	e0930023 	lbui	r4, r19, 35
    279c:	a8840001 	xori	r4, r4, 1
    27a0:	be040044 	beqid	r4, 68		// 27e4
    27a4:	10b30000 	addk	r5, r19, r0
    27a8:	be230024 	bneid	r3, 36		// 27cc
    27ac:	e9e10000 	lwi	r15, r1, 0
    27b0:	30600001 	addik	r3, r0, 1
    27b4:	f0730024 	sbi	r3, r19, 36
    27b8:	e9e10000 	lwi	r15, r1, 0
    27bc:	ea610020 	lwi	r19, r1, 32
    27c0:	10600000 	addk	r3, r0, r0
    27c4:	b60f0008 	rtsd	r15, 8
    27c8:	30210024 	addik	r1, r1, 36
    27cc:	ea610020 	lwi	r19, r1, 32
    27d0:	30600001 	addik	r3, r0, 1
    27d4:	b60f0008 	rtsd	r15, 8
    27d8:	30210024 	addik	r1, r1, 36
    27dc:	b60f0008 	rtsd	r15, 8
    27e0:	80000000 	or	r0, r0, r0
    27e4:	e8930040 	lwi	r4, r19, 64
    27e8:	b0000000 	imm	0
    27ec:	e8e03a10 	lwi	r7, r0, 14864	// 3a10 <XIsf_ByteCountInfo>
    27f0:	b0000000 	imm	0
    27f4:	e8c03a0c 	lwi	r6, r0, 14860	// 3a0c <XIsf_StatusEventInfo>
    27f8:	99fc2000 	brald	r15, r4
    27fc:	f861001c 	swi	r3, r1, 28
    2800:	e861001c 	lwi	r3, r1, 28
    2804:	be03ffb0 	beqid	r3, -80		// 27b4
    2808:	30600001 	addik	r3, r0, 1
    280c:	b810ffc0 	brid	-64		// 27cc
    2810:	e9e10000 	lwi	r15, r1, 0

00002814 <XIsf_MicronFlashExit4BAddMode>:
    2814:	be050080 	beqid	r5, 128		// 2894
    2818:	30600001 	addik	r3, r0, 1
    281c:	e0650000 	lbui	r3, r5, 0
    2820:	a8630001 	xori	r3, r3, 1
    2824:	be230070 	bneid	r3, 112		// 2894
    2828:	30600001 	addik	r3, r0, 1
    282c:	e0650024 	lbui	r3, r5, 36
    2830:	bc030064 	beqi	r3, 100		// 2894
    2834:	3021ffdc 	addik	r1, r1, -36
    2838:	fa610020 	swi	r19, r1, 32
    283c:	f9e10000 	swi	r15, r1, 0
    2840:	e8650010 	lwi	r3, r5, 16
    2844:	12650000 	addk	r19, r5, r0
    2848:	30800020 	addik	r4, r0, 32	// 20 <_vector_hw_exception>
    284c:	30a000c2 	addik	r5, r0, 194
    2850:	88832400 	pcmpeq	r4, r3, r4
    2854:	88a32c00 	pcmpeq	r5, r3, r5
    2858:	80a42800 	or	r5, r4, r5
    285c:	3080009d 	addik	r4, r0, 157
    2860:	88832400 	pcmpeq	r4, r3, r4
    2864:	80842800 	or	r4, r4, r5
    2868:	bc240034 	bnei	r4, 52		// 289c
    286c:	3080002c 	addik	r4, r0, 44
    2870:	88832400 	pcmpeq	r4, r3, r4
    2874:	be24002c 	bneid	r4, 44		// 28a0
    2878:	a863009d 	xori	r3, r3, 157
    287c:	f0130024 	sbi	r0, r19, 36
    2880:	e9e10000 	lwi	r15, r1, 0
    2884:	ea610020 	lwi	r19, r1, 32
    2888:	10600000 	addk	r3, r0, r0
    288c:	b60f0008 	rtsd	r15, 8
    2890:	30210024 	addik	r1, r1, 36
    2894:	b60f0008 	rtsd	r15, 8
    2898:	80000000 	or	r0, r0, r0
    289c:	a863009d 	xori	r3, r3, 157
    28a0:	be030074 	beqid	r3, 116		// 2914
    28a4:	e893001c 	lwi	r4, r19, 28
    28a8:	3060ffe9 	addik	r3, r0, -23
    28ac:	f0640000 	sbi	r3, r4, 0
    28b0:	e8d3001c 	lwi	r6, r19, 28
    28b4:	10b30000 	addk	r5, r19, r0
    28b8:	31000001 	addik	r8, r0, 1
    28bc:	b000ffff 	imm	-1
    28c0:	b9f4f9c0 	brlid	r15, -1600	// 2280 <XIsf_Transfer>
    28c4:	10e00000 	addk	r7, r0, r0
    28c8:	e0930023 	lbui	r4, r19, 35
    28cc:	a8840001 	xori	r4, r4, 1
    28d0:	be040020 	beqid	r4, 32		// 28f0
    28d4:	10b30000 	addk	r5, r19, r0
    28d8:	be03ffa4 	beqid	r3, -92		// 287c
    28dc:	e9e10000 	lwi	r15, r1, 0
    28e0:	ea610020 	lwi	r19, r1, 32
    28e4:	30600001 	addik	r3, r0, 1
    28e8:	b60f0008 	rtsd	r15, 8
    28ec:	30210024 	addik	r1, r1, 36
    28f0:	e8930040 	lwi	r4, r19, 64
    28f4:	b0000000 	imm	0
    28f8:	e8e03a10 	lwi	r7, r0, 14864	// 3a10 <XIsf_ByteCountInfo>
    28fc:	b0000000 	imm	0
    2900:	e8c03a0c 	lwi	r6, r0, 14860	// 3a0c <XIsf_StatusEventInfo>
    2904:	99fc2000 	brald	r15, r4
    2908:	f861001c 	swi	r3, r1, 28
    290c:	b810ffcc 	brid	-52		// 28d8
    2910:	e861001c 	lwi	r3, r1, 28
    2914:	30600029 	addik	r3, r0, 41
    2918:	b810ff98 	brid	-104		// 28b0
    291c:	f0640000 	sbi	r3, r4, 0

00002920 <GetRealAddr>:
    2920:	b60f0008 	rtsd	r15, 8
    2924:	10660000 	addk	r3, r6, r0

00002928 <FastReadData>:
    2928:	3021ffb0 	addik	r1, r1, -80
    292c:	fa610028 	swi	r19, r1, 40
    2930:	326affff 	addik	r19, r10, -1
    2934:	826a9800 	or	r19, r10, r19
    2938:	6673001f 	bsrli	r19, r19, 31
    293c:	10800000 	addk	r4, r0, r0
    2940:	88882400 	pcmpeq	r4, r8, r4
    2944:	f9e10000 	swi	r15, r1, 0
    2948:	fac1002c 	swi	r22, r1, 44
    294c:	fae10030 	swi	r23, r1, 48
    2950:	fb010034 	swi	r24, r1, 52
    2954:	fb210038 	swi	r25, r1, 56
    2958:	fb41003c 	swi	r26, r1, 60
    295c:	fb610040 	swi	r27, r1, 64
    2960:	fb810044 	swi	r28, r1, 68
    2964:	fba10048 	swi	r29, r1, 72
    2968:	fbc1004c 	swi	r30, r1, 76
    296c:	f801001c 	swi	r0, r1, 28
    2970:	f8010020 	swi	r0, r1, 32
    2974:	80849800 	or	r4, r4, r19
    2978:	be2400b0 	bneid	r4, 176		// 2a28
    297c:	f4010024 	shi	r0, r1, 36
    2980:	8a692400 	pcmpeq	r19, r9, r4
    2984:	13090000 	addk	r24, r9, r0
    2988:	be3300a0 	bneid	r19, 160		// 2a28
    298c:	13c90000 	addk	r30, r9, r0
    2990:	12ca0000 	addk	r22, r10, r0
    2994:	32e0ffff 	addik	r23, r0, -1
    2998:	336a0004 	addik	r27, r10, 4
    299c:	be690084 	bleid	r9, 132		// 2a20
    29a0:	338a0005 	addik	r28, r10, 5
    29a4:	13a50000 	addk	r29, r5, r0
    29a8:	13460000 	addk	r26, r6, r0
    29ac:	e8a50014 	lwi	r5, r5, 20
    29b0:	10c70000 	addk	r6, r7, r0
    29b4:	b000ffff 	imm	-1
    29b8:	b9f4ff68 	brlid	r15, -152	// 2920 <GetRealAddr>
    29bc:	13280000 	addk	r25, r8, r0
    29c0:	e09d0024 	lbui	r4, r29, 36
    29c4:	a8840001 	xori	r4, r4, 1
    29c8:	be040098 	beqid	r4, 152		// 2a60
    29cc:	64a30010 	bsrli	r5, r3, 16
    29d0:	10930000 	addk	r4, r19, r0
    29d4:	906301e0 	swapb	r3, r3
    29d8:	906301e2 	swaph	r3, r3
    29dc:	f341001c 	sbi	r26, r1, 28
    29e0:	f0a1001d 	sbi	r5, r1, 29
    29e4:	f461001e 	shi	r3, r1, 30
    29e8:	30a1001c 	addik	r5, r1, 28
    29ec:	10652000 	addk	r3, r5, r4
    29f0:	30840001 	addik	r4, r4, 1
    29f4:	16562001 	cmp	r18, r22, r4
    29f8:	be52fff4 	bltid	r18, -12		// 29ec
    29fc:	f2e30004 	sbi	r23, r3, 4
    2a00:	10bd0000 	addk	r5, r29, r0
    2a04:	14fec000 	rsubk	r7, r30, r24
    2a08:	30c1001c 	addik	r6, r1, 28
    2a0c:	111bf000 	addk	r8, r27, r30
    2a10:	b000ffff 	imm	-1
    2a14:	b9f4f86c 	brlid	r15, -1940	// 2280 <XIsf_Transfer>
    2a18:	10f93800 	addk	r7, r25, r7
    2a1c:	bc23000c 	bnei	r3, 12		// 2a28
    2a20:	b810000c 	brid	12		// 2a2c
    2a24:	10600000 	addk	r3, r0, r0
    2a28:	30600001 	addik	r3, r0, 1
    2a2c:	e9e10000 	lwi	r15, r1, 0
    2a30:	ea610028 	lwi	r19, r1, 40
    2a34:	eac1002c 	lwi	r22, r1, 44
    2a38:	eae10030 	lwi	r23, r1, 48
    2a3c:	eb010034 	lwi	r24, r1, 52
    2a40:	eb210038 	lwi	r25, r1, 56
    2a44:	eb41003c 	lwi	r26, r1, 60
    2a48:	eb610040 	lwi	r27, r1, 64
    2a4c:	eb810044 	lwi	r28, r1, 68
    2a50:	eba10048 	lwi	r29, r1, 72
    2a54:	ebc1004c 	lwi	r30, r1, 76
    2a58:	b60f0008 	rtsd	r15, 8
    2a5c:	30210050 	addik	r1, r1, 80
    2a60:	64e30018 	bsrli	r7, r3, 24
    2a64:	64c30010 	bsrli	r6, r3, 16
    2a68:	64a30008 	bsrli	r5, r3, 8
    2a6c:	f341001c 	sbi	r26, r1, 28
    2a70:	f0e1001d 	sbi	r7, r1, 29
    2a74:	f0c1001e 	sbi	r6, r1, 30
    2a78:	f0a1001f 	sbi	r5, r1, 31
    2a7c:	f0610020 	sbi	r3, r1, 32
    2a80:	30a1001c 	addik	r5, r1, 28
    2a84:	10652000 	addk	r3, r5, r4
    2a88:	30840001 	addik	r4, r4, 1
    2a8c:	16562001 	cmp	r18, r22, r4
    2a90:	be52fff4 	bltid	r18, -12		// 2a84
    2a94:	f2e30005 	sbi	r23, r3, 5
    2a98:	10bd0000 	addk	r5, r29, r0
    2a9c:	14fec000 	rsubk	r7, r30, r24
    2aa0:	30c1001c 	addik	r6, r1, 28
    2aa4:	111cf000 	addk	r8, r28, r30
    2aa8:	b000ffff 	imm	-1
    2aac:	b9f4f7d4 	brlid	r15, -2092	// 2280 <XIsf_Transfer>
    2ab0:	10f93800 	addk	r7, r25, r7
    2ab4:	bc03ff6c 	beqi	r3, -148		// 2a20
    2ab8:	b810ff74 	brid	-140		// 2a2c
    2abc:	30600001 	addik	r3, r0, 1

00002ac0 <XIsf_Read>:
    2ac0:	bc050054 	beqi	r5, 84		// 2b14
    2ac4:	e0650000 	lbui	r3, r5, 0
    2ac8:	30800001 	addik	r4, r0, 1
    2acc:	8c632400 	pcmpne	r3, r3, r4
    2ad0:	bc230044 	bnei	r3, 68		// 2b14
    2ad4:	88671c00 	pcmpeq	r3, r7, r3
    2ad8:	bc23003c 	bnei	r3, 60		// 2b14
    2adc:	3021ffc8 	addik	r1, r1, -56
    2ae0:	fa61002c 	swi	r19, r1, 44
    2ae4:	f9e10000 	swi	r15, r1, 0
    2ae8:	fac10030 	swi	r22, r1, 48
    2aec:	fae10034 	swi	r23, r1, 52
    2af0:	30600009 	addik	r3, r0, 9
    2af4:	16461803 	cmpu	r18, r6, r3
    2af8:	be5203f8 	bltid	r18, 1016		// 2ef0
    2afc:	12650000 	addk	r19, r5, r0
    2b00:	64c60402 	bslli	r6, r6, 2
    2b04:	b0000000 	imm	0
    2b08:	30c63514 	addik	r6, r6, 13588
    2b0c:	e8660000 	lwi	r3, r6, 0
    2b10:	98081800 	bra	r3
    2b14:	b60f0008 	rtsd	r15, 8
    2b18:	30600001 	addik	r3, r0, 1
    2b1c:	e0650024 	lbui	r3, r5, 36
    2b20:	e8870000 	lwi	r4, r7, 0
    2b24:	b0000000 	imm	0
    2b28:	f8003a04 	swi	r0, r0, 14852	// 3a04 <Xil_AssertStatus>
    2b2c:	a8630001 	xori	r3, r3, 1
    2b30:	e9070004 	lwi	r8, r7, 4
    2b34:	e9270008 	lwi	r9, r7, 8
    2b38:	e947000c 	lwi	r10, r7, 12
    2b3c:	be030310 	beqid	r3, 784		// 2e4c
    2b40:	10e40000 	addk	r7, r4, r0
    2b44:	b000ffff 	imm	-1
    2b48:	b9f4fde0 	brlid	r15, -544	// 2928 <FastReadData>
    2b4c:	30c0006b 	addik	r6, r0, 107
    2b50:	e0930023 	lbui	r4, r19, 35
    2b54:	a8840001 	xori	r4, r4, 1
    2b58:	be240030 	bneid	r4, 48		// 2b88
    2b5c:	e9e10000 	lwi	r15, r1, 0
    2b60:	e8930040 	lwi	r4, r19, 64
    2b64:	b0000000 	imm	0
    2b68:	e8e03a10 	lwi	r7, r0, 14864	// 3a10 <XIsf_ByteCountInfo>
    2b6c:	b0000000 	imm	0
    2b70:	e8c03a0c 	lwi	r6, r0, 14860	// 3a0c <XIsf_StatusEventInfo>
    2b74:	10b30000 	addk	r5, r19, r0
    2b78:	99fc2000 	brald	r15, r4
    2b7c:	f8610028 	swi	r3, r1, 40
    2b80:	e8610028 	lwi	r3, r1, 40
    2b84:	e9e10000 	lwi	r15, r1, 0
    2b88:	ea61002c 	lwi	r19, r1, 44
    2b8c:	eac10030 	lwi	r22, r1, 48
    2b90:	eae10034 	lwi	r23, r1, 52
    2b94:	b60f0008 	rtsd	r15, 8
    2b98:	30210038 	addik	r1, r1, 56
    2b9c:	e947000c 	lwi	r10, r7, 12
    2ba0:	e9270008 	lwi	r9, r7, 8
    2ba4:	e9070004 	lwi	r8, r7, 4
    2ba8:	e8e70000 	lwi	r7, r7, 0
    2bac:	b0000000 	imm	0
    2bb0:	f8003a04 	swi	r0, r0, 14852	// 3a04 <Xil_AssertStatus>
    2bb4:	b000ffff 	imm	-1
    2bb8:	b9f4fd70 	brlid	r15, -656	// 2928 <FastReadData>
    2bbc:	30c000eb 	addik	r6, r0, 235
    2bc0:	b810ff94 	brid	-108		// 2b54
    2bc4:	e0930023 	lbui	r4, r19, 35
    2bc8:	eae70004 	lwi	r23, r7, 4
    2bcc:	10600000 	addk	r3, r0, r0
    2bd0:	f801001c 	swi	r0, r1, 28
    2bd4:	f8010020 	swi	r0, r1, 32
    2bd8:	f4010024 	shi	r0, r1, 36
    2bdc:	88771c00 	pcmpeq	r3, r23, r3
    2be0:	e8c70000 	lwi	r6, r7, 0
    2be4:	be2300c8 	bneid	r3, 200		// 2cac
    2be8:	eac70008 	lwi	r22, r7, 8
    2bec:	88761c00 	pcmpeq	r3, r22, r3
    2bf0:	be23ff60 	bneid	r3, -160		// 2b50
    2bf4:	30600001 	addik	r3, r0, 1
    2bf8:	be76ff58 	bleid	r22, -168		// 2b50
    2bfc:	10600000 	addk	r3, r0, r0
    2c00:	b000ffff 	imm	-1
    2c04:	b9f4fd1c 	brlid	r15, -740	// 2920 <GetRealAddr>
    2c08:	e8a50014 	lwi	r5, r5, 20
    2c0c:	e0930024 	lbui	r4, r19, 36
    2c10:	10f70000 	addk	r7, r23, r0
    2c14:	30c1001c 	addik	r6, r1, 28
    2c18:	a8840001 	xori	r4, r4, 1
    2c1c:	be0401f4 	beqid	r4, 500		// 2e10
    2c20:	10b30000 	addk	r5, r19, r0
    2c24:	64830010 	bsrli	r4, r3, 16
    2c28:	31200003 	addik	r9, r0, 3
    2c2c:	906301e0 	swapb	r3, r3
    2c30:	906301e2 	swaph	r3, r3
    2c34:	31160004 	addik	r8, r22, 4
    2c38:	f121001c 	sbi	r9, r1, 28
    2c3c:	f081001d 	sbi	r4, r1, 29
    2c40:	b000ffff 	imm	-1
    2c44:	b9f4f63c 	brlid	r15, -2500	// 2280 <XIsf_Transfer>
    2c48:	f461001e 	shi	r3, r1, 30
    2c4c:	bc230060 	bnei	r3, 96		// 2cac
    2c50:	b810ff00 	brid	-256		// 2b50
    2c54:	10600000 	addk	r3, r0, r0
    2c58:	e0650024 	lbui	r3, r5, 36
    2c5c:	e8870000 	lwi	r4, r7, 0
    2c60:	b0000000 	imm	0
    2c64:	f8003a04 	swi	r0, r0, 14852	// 3a04 <Xil_AssertStatus>
    2c68:	a8630001 	xori	r3, r3, 1
    2c6c:	e9070004 	lwi	r8, r7, 4
    2c70:	e9270008 	lwi	r9, r7, 8
    2c74:	e947000c 	lwi	r10, r7, 12
    2c78:	be0301d4 	beqid	r3, 468		// 2e4c
    2c7c:	10e40000 	addk	r7, r4, r0
    2c80:	b000ffff 	imm	-1
    2c84:	b9f4fca4 	brlid	r15, -860	// 2928 <FastReadData>
    2c88:	30c0000b 	addik	r6, r0, 11
    2c8c:	b810fec8 	brid	-312		// 2b54
    2c90:	e0930023 	lbui	r4, r19, 35
    2c94:	e8670004 	lwi	r3, r7, 4
    2c98:	b0000000 	imm	0
    2c9c:	f8003a04 	swi	r0, r0, 14852	// 3a04 <Xil_AssertStatus>
    2ca0:	bc0301c0 	beqi	r3, 448		// 2e60
    2ca4:	e0670000 	lbui	r3, r7, 0
    2ca8:	bc03013c 	beqi	r3, 316		// 2de4
    2cac:	b810fea4 	brid	-348		// 2b50
    2cb0:	30600001 	addik	r3, r0, 1
    2cb4:	b0000000 	imm	0
    2cb8:	f8003a04 	swi	r0, r0, 14852	// 3a04 <Xil_AssertStatus>
    2cbc:	e0670000 	lbui	r3, r7, 0
    2cc0:	bc0301d0 	beqi	r3, 464		// 2e90
    2cc4:	e8670004 	lwi	r3, r7, 4
    2cc8:	bc030218 	beqi	r3, 536		// 2ee0
    2ccc:	e8670008 	lwi	r3, r7, 8
    2cd0:	bc0301e0 	beqi	r3, 480		// 2eb0
    2cd4:	e867000c 	lwi	r3, r7, 12
    2cd8:	bc23ffd4 	bnei	r3, -44		// 2cac
    2cdc:	b0000000 	imm	0
    2ce0:	30a03210 	addik	r5, r0, 12816
    2ce4:	30c0046f 	addik	r6, r0, 1135
    2ce8:	b000ffff 	imm	-1
    2cec:	b9f4f3e4 	brlid	r15, -3100	// 20d0 <Xil_Assert>
    2cf0:	f8610028 	swi	r3, r1, 40
    2cf4:	31200001 	addik	r9, r0, 1
    2cf8:	b0000000 	imm	0
    2cfc:	f9203a04 	swi	r9, r0, 14852	// 3a04 <Xil_AssertStatus>
    2d00:	b810fe50 	brid	-432		// 2b50
    2d04:	e8610028 	lwi	r3, r1, 40
    2d08:	b0000000 	imm	0
    2d0c:	f8003a04 	swi	r0, r0, 14852	// 3a04 <Xil_AssertStatus>
    2d10:	e0670000 	lbui	r3, r7, 0
    2d14:	bc03016c 	beqi	r3, 364		// 2e80
    2d18:	e8670004 	lwi	r3, r7, 4
    2d1c:	bc0301b4 	beqi	r3, 436		// 2ed0
    2d20:	e8670008 	lwi	r3, r7, 8
    2d24:	bc03017c 	beqi	r3, 380		// 2ea0
    2d28:	e867000c 	lwi	r3, r7, 12
    2d2c:	bc23ff80 	bnei	r3, -128		// 2cac
    2d30:	b0000000 	imm	0
    2d34:	30a03210 	addik	r5, r0, 12816
    2d38:	b8100034 	brid	52		// 2d6c
    2d3c:	30c004c2 	addik	r6, r0, 1218
    2d40:	e8670000 	lwi	r3, r7, 0
    2d44:	b0000000 	imm	0
    2d48:	f8003a04 	swi	r0, r0, 14852	// 3a04 <Xil_AssertStatus>
    2d4c:	bc030124 	beqi	r3, 292		// 2e70
    2d50:	e8670004 	lwi	r3, r7, 4
    2d54:	bc03016c 	beqi	r3, 364		// 2ec0
    2d58:	e8670008 	lwi	r3, r7, 8
    2d5c:	bc23ff50 	bnei	r3, -176		// 2cac
    2d60:	b0000000 	imm	0
    2d64:	30a03210 	addik	r5, r0, 12816
    2d68:	30c00513 	addik	r6, r0, 1299
    2d6c:	b000ffff 	imm	-1
    2d70:	b9f4f360 	brlid	r15, -3232	// 20d0 <Xil_Assert>
    2d74:	f8610028 	swi	r3, r1, 40
    2d78:	31600001 	addik	r11, r0, 1
    2d7c:	b0000000 	imm	0
    2d80:	f9603a04 	swi	r11, r0, 14852	// 3a04 <Xil_AssertStatus>
    2d84:	b810fdcc 	brid	-564		// 2b50
    2d88:	e8610028 	lwi	r3, r1, 40
    2d8c:	e947000c 	lwi	r10, r7, 12
    2d90:	e9270008 	lwi	r9, r7, 8
    2d94:	e9070004 	lwi	r8, r7, 4
    2d98:	e8e70000 	lwi	r7, r7, 0
    2d9c:	b0000000 	imm	0
    2da0:	f8003a04 	swi	r0, r0, 14852	// 3a04 <Xil_AssertStatus>
    2da4:	b000ffff 	imm	-1
    2da8:	b9f4fb80 	brlid	r15, -1152	// 2928 <FastReadData>
    2dac:	30c0003b 	addik	r6, r0, 59
    2db0:	b810fda4 	brid	-604		// 2b54
    2db4:	e0930023 	lbui	r4, r19, 35
    2db8:	e947000c 	lwi	r10, r7, 12
    2dbc:	e9270008 	lwi	r9, r7, 8
    2dc0:	e9070004 	lwi	r8, r7, 4
    2dc4:	e8e70000 	lwi	r7, r7, 0
    2dc8:	b0000000 	imm	0
    2dcc:	f8003a04 	swi	r0, r0, 14852	// 3a04 <Xil_AssertStatus>
    2dd0:	b000ffff 	imm	-1
    2dd4:	b9f4fb54 	brlid	r15, -1196	// 2928 <FastReadData>
    2dd8:	30c000bb 	addik	r6, r0, 187
    2ddc:	b810fd78 	brid	-648		// 2b54
    2de0:	e0930023 	lbui	r4, r19, 35
    2de4:	b0000000 	imm	0
    2de8:	30a03210 	addik	r5, r0, 12816
    2dec:	30c0041d 	addik	r6, r0, 1053
    2df0:	b000ffff 	imm	-1
    2df4:	b9f4f2dc 	brlid	r15, -3364	// 20d0 <Xil_Assert>
    2df8:	f8610028 	swi	r3, r1, 40
    2dfc:	30800001 	addik	r4, r0, 1
    2e00:	b0000000 	imm	0
    2e04:	f8803a04 	swi	r4, r0, 14852	// 3a04 <Xil_AssertStatus>
    2e08:	b810fd48 	brid	-696		// 2b50
    2e0c:	e8610028 	lwi	r3, r1, 40
    2e10:	65430018 	bsrli	r10, r3, 24
    2e14:	65230010 	bsrli	r9, r3, 16
    2e18:	64830008 	bsrli	r4, r3, 8
    2e1c:	31600013 	addik	r11, r0, 19
    2e20:	31160005 	addik	r8, r22, 5
    2e24:	f161001c 	sbi	r11, r1, 28
    2e28:	f141001d 	sbi	r10, r1, 29
    2e2c:	f121001e 	sbi	r9, r1, 30
    2e30:	f081001f 	sbi	r4, r1, 31
    2e34:	b000ffff 	imm	-1
    2e38:	b9f4f448 	brlid	r15, -3000	// 2280 <XIsf_Transfer>
    2e3c:	f0610020 	sbi	r3, r1, 32
    2e40:	bc03fe10 	beqi	r3, -496		// 2c50
    2e44:	b810fd0c 	brid	-756		// 2b50
    2e48:	30600001 	addik	r3, r0, 1
    2e4c:	b000ffff 	imm	-1
    2e50:	b9f4fad8 	brlid	r15, -1320	// 2928 <FastReadData>
    2e54:	30c0000c 	addik	r6, r0, 12
    2e58:	b810fcfc 	brid	-772		// 2b54
    2e5c:	e0930023 	lbui	r4, r19, 35
    2e60:	b0000000 	imm	0
    2e64:	30a03210 	addik	r5, r0, 12816
    2e68:	b810ff04 	brid	-252		// 2d6c
    2e6c:	30c0041c 	addik	r6, r0, 1052
    2e70:	b0000000 	imm	0
    2e74:	30a03210 	addik	r5, r0, 12816
    2e78:	b810ff78 	brid	-136		// 2df0
    2e7c:	30c00511 	addik	r6, r0, 1297
    2e80:	b0000000 	imm	0
    2e84:	30a03210 	addik	r5, r0, 12816
    2e88:	b810fee4 	brid	-284		// 2d6c
    2e8c:	30c004bf 	addik	r6, r0, 1215
    2e90:	b0000000 	imm	0
    2e94:	30a03210 	addik	r5, r0, 12816
    2e98:	b810fe50 	brid	-432		// 2ce8
    2e9c:	30c0046c 	addik	r6, r0, 1132
    2ea0:	b0000000 	imm	0
    2ea4:	30a03210 	addik	r5, r0, 12816
    2ea8:	b810fe40 	brid	-448		// 2ce8
    2eac:	30c004c1 	addik	r6, r0, 1217
    2eb0:	b0000000 	imm	0
    2eb4:	30a03210 	addik	r5, r0, 12816
    2eb8:	b810ff38 	brid	-200		// 2df0
    2ebc:	30c0046e 	addik	r6, r0, 1134
    2ec0:	b0000000 	imm	0
    2ec4:	30a03210 	addik	r5, r0, 12816
    2ec8:	b810fe20 	brid	-480		// 2ce8
    2ecc:	30c00512 	addik	r6, r0, 1298
    2ed0:	b0000000 	imm	0
    2ed4:	30a03210 	addik	r5, r0, 12816
    2ed8:	b810ff18 	brid	-232		// 2df0
    2edc:	30c004c0 	addik	r6, r0, 1216
    2ee0:	b0000000 	imm	0
    2ee4:	30a03210 	addik	r5, r0, 12816
    2ee8:	b810fe84 	brid	-380		// 2d6c
    2eec:	30c0046d 	addik	r6, r0, 1133
    2ef0:	b810fc60 	brid	-928		// 2b50
    2ef4:	10640000 	addk	r3, r4, r0

00002ef8 <XSpi_SetOptions>:
    2ef8:	3021ffe0 	addik	r1, r1, -32
    2efc:	fa61001c 	swi	r19, r1, 28
    2f00:	f9e10000 	swi	r15, r1, 0
    2f04:	be05010c 	beqid	r5, 268		// 3010
    2f08:	12650000 	addk	r19, r5, r0
    2f0c:	e865001c 	lwi	r3, r5, 28
    2f10:	b0000000 	imm	0
    2f14:	f8003a04 	swi	r0, r0, 14852	// 3a04 <Xil_AssertStatus>
    2f18:	b0001111 	imm	4369
    2f1c:	a8631111 	xori	r3, r3, 4369
    2f20:	bc2300a0 	bnei	r3, 160		// 2fc0
    2f24:	e8650048 	lwi	r3, r5, 72
    2f28:	be2300cc 	bneid	r3, 204		// 2ff4
    2f2c:	a4860001 	andi	r4, r6, 1
    2f30:	bc04000c 	beqi	r4, 12		// 2f3c
    2f34:	e8850028 	lwi	r4, r5, 40
    2f38:	bc2400d0 	bnei	r4, 208		// 3008
    2f3c:	e9730018 	lwi	r11, r19, 24
    2f40:	30a00008 	addik	r5, r0, 8	// 8 <_vector_sw_exception>
    2f44:	31200001 	addik	r9, r0, 1
    2f48:	e94b0060 	lwi	r10, r11, 96
    2f4c:	84853000 	and	r4, r5, r6
    2f50:	31000005 	addik	r8, r0, 5
    2f54:	10e00000 	addk	r7, r0, r0
    2f58:	be040038 	beqid	r4, 56		// 2f90
    2f5c:	a8a9ffff 	xori	r5, r9, -1
    2f60:	30e70001 	addik	r7, r7, 1
    2f64:	64870403 	bslli	r4, r7, 3
    2f68:	3108ffff 	addik	r8, r8, -1
    2f6c:	b0000000 	imm	0
    2f70:	3084353c 	addik	r4, r4, 13628
    2f74:	be080038 	beqid	r8, 56		// 2fac
    2f78:	814a4800 	or	r10, r10, r9
    2f7c:	e8a40000 	lwi	r5, r4, 0
    2f80:	e9240004 	lwi	r9, r4, 4
    2f84:	84853000 	and	r4, r5, r6
    2f88:	be24ffd8 	bneid	r4, -40		// 2f60
    2f8c:	a8a9ffff 	xori	r5, r9, -1
    2f90:	30e70001 	addik	r7, r7, 1
    2f94:	64870403 	bslli	r4, r7, 3
    2f98:	3108ffff 	addik	r8, r8, -1
    2f9c:	b0000000 	imm	0
    2fa0:	3084353c 	addik	r4, r4, 13628
    2fa4:	be28ffd8 	bneid	r8, -40		// 2f7c
    2fa8:	854a2800 	and	r10, r10, r5
    2fac:	f94b0060 	swi	r10, r11, 96
    2fb0:	e9e10000 	lwi	r15, r1, 0
    2fb4:	ea61001c 	lwi	r19, r1, 28
    2fb8:	b60f0008 	rtsd	r15, 8
    2fbc:	30210020 	addik	r1, r1, 32
    2fc0:	b0000000 	imm	0
    2fc4:	30a03220 	addik	r5, r0, 12832
    2fc8:	b000ffff 	imm	-1
    2fcc:	b9f4f104 	brlid	r15, -3836	// 20d0 <Xil_Assert>
    2fd0:	30c0007f 	addik	r6, r0, 127
    2fd4:	e9e10000 	lwi	r15, r1, 0
    2fd8:	ea61001c 	lwi	r19, r1, 28
    2fdc:	30600001 	addik	r3, r0, 1
    2fe0:	b0000000 	imm	0
    2fe4:	f8603a04 	swi	r3, r0, 14852	// 3a04 <Xil_AssertStatus>
    2fe8:	10600000 	addk	r3, r0, r0
    2fec:	b60f0008 	rtsd	r15, 8
    2ff0:	30210020 	addik	r1, r1, 32
    2ff4:	e9e10000 	lwi	r15, r1, 0
    2ff8:	ea61001c 	lwi	r19, r1, 28
    2ffc:	30600015 	addik	r3, r0, 21
    3000:	b60f0008 	rtsd	r15, 8
    3004:	30210020 	addik	r1, r1, 32
    3008:	b810ffa8 	brid	-88		// 2fb0
    300c:	30600486 	addik	r3, r0, 1158
    3010:	b0000000 	imm	0
    3014:	30a03220 	addik	r5, r0, 12832
    3018:	b000ffff 	imm	-1
    301c:	b9f4f0b4 	brlid	r15, -3916	// 20d0 <Xil_Assert>
    3020:	30c0007e 	addik	r6, r0, 126
    3024:	30600001 	addik	r3, r0, 1
    3028:	b0000000 	imm	0
    302c:	f8603a04 	swi	r3, r0, 14852	// 3a04 <Xil_AssertStatus>
    3030:	b810ff80 	brid	-128		// 2fb0
    3034:	10730000 	addk	r3, r19, r0

Disassembly of section .init:

00003038 <__init>:
    3038:	3021fff0 	addik	r1, r1, -16
    303c:	d9e00800 	sw	r15, r0, r1
    3040:	3160ffff 	addik	r11, r0, -1
    3044:	940bc802 	mts	rshr, r11
    3048:	31600000 	addik	r11, r0, 0
    304c:	940bc800 	mts	rslr, r11
    3050:	b000ffff 	imm	-1
    3054:	b9f4d1a4 	brlid	r15, -11868	// 1f8 <frame_dummy>
    3058:	80000000 	or	r0, r0, r0
    305c:	b000ffff 	imm	-1
    3060:	b9f4d63c 	brlid	r15, -10692	// 69c <__do_global_ctors_aux>
    3064:	80000000 	or	r0, r0, r0
    3068:	c9e00800 	lw	r15, r0, r1
    306c:	b60f0008 	rtsd	r15, 8
    3070:	30210010 	addik	r1, r1, 16

Disassembly of section .fini:

00003074 <__fini>:
    3074:	3021fff0 	addik	r1, r1, -16
    3078:	d9e00800 	sw	r15, r0, r1
    307c:	b000ffff 	imm	-1
    3080:	b9f4d0a4 	brlid	r15, -12124	// 124 <__do_global_dtors_aux>
    3084:	80000000 	or	r0, r0, r0
    3088:	c9e00800 	lw	r15, r0, r1
    308c:	b60f0008 	rtsd	r15, 8
    3090:	30210010 	addik	r1, r1, 16
